	.file	"WaveletCompressor.cpp"
	.section	.text.unlikely._ZN24WaveletCompressorGenericILi32EfE15compressed_dataEv,"axG",@progbits,_ZN24WaveletCompressorGenericILi32EfE15compressed_dataEv,comdat
	.align 2
.LCOLDB0:
	.section	.text._ZN24WaveletCompressorGenericILi32EfE15compressed_dataEv,"axG",@progbits,_ZN24WaveletCompressorGenericILi32EfE15compressed_dataEv,comdat
.LHOTB0:
	.align 2
	.p2align 4,,15
	.weak	_ZN24WaveletCompressorGenericILi32EfE15compressed_dataEv
	.type	_ZN24WaveletCompressorGenericILi32EfE15compressed_dataEv, @function
_ZN24WaveletCompressorGenericILi32EfE15compressed_dataEv:
.LFB1380:
	.cfi_startproc
	leaq	131104(%rdi), %rax
	ret
	.cfi_endproc
.LFE1380:
	.size	_ZN24WaveletCompressorGenericILi32EfE15compressed_dataEv, .-_ZN24WaveletCompressorGenericILi32EfE15compressed_dataEv
	.section	.text.unlikely._ZN24WaveletCompressorGenericILi32EfE15compressed_dataEv,"axG",@progbits,_ZN24WaveletCompressorGenericILi32EfE15compressed_dataEv,comdat
.LCOLDE0:
	.section	.text._ZN24WaveletCompressorGenericILi32EfE15compressed_dataEv,"axG",@progbits,_ZN24WaveletCompressorGenericILi32EfE15compressed_dataEv,comdat
.LHOTE0:
	.section	.text.unlikely._ZN24WaveletCompressorGenericILi32EfE10decompressEbmiPA32_A32_f,"axG",@progbits,_ZN24WaveletCompressorGenericILi32EfE10decompressEbmiPA32_A32_f,comdat
	.align 2
.LCOLDB1:
	.section	.text._ZN24WaveletCompressorGenericILi32EfE10decompressEbmiPA32_A32_f,"axG",@progbits,_ZN24WaveletCompressorGenericILi32EfE10decompressEbmiPA32_A32_f,comdat
.LHOTB1:
	.align 2
	.p2align 4,,15
	.weak	_ZN24WaveletCompressorGenericILi32EfE10decompressEbmiPA32_A32_f
	.type	_ZN24WaveletCompressorGenericILi32EfE10decompressEbmiPA32_A32_f, @function
_ZN24WaveletCompressorGenericILi32EfE10decompressEbmiPA32_A32_f:
.LFB1384:
	.cfi_startproc
	leaq	8(%rsp), %r10
	.cfi_def_cfa 10, 0
	andq	$-32, %rsp
	movzbl	%sil, %esi
	pushq	-8(%r10)
	pushq	%rbp
	.cfi_escape 0x10,0x6,0x2,0x76,0
	movq	%rsp, %rbp
	pushq	%r12
	.cfi_escape 0x10,0xc,0x2,0x76,0x78
	movq	%rdi, %r12
	pushq	%r10
	.cfi_escape 0xf,0x3,0x76,0x70,0x6
	pushq	%rbx
	.cfi_escape 0x10,0x3,0x2,0x76,0x68
	movq	%r8, %rbx
	subq	$24, %rsp
	movq	(%rdi), %rax
	call	*24(%rax)
	leaq	20(%r12), %rdx
	leaq	32(%rbx), %rax
	cmpq	%rax, %rdx
	jae	.L20
	leaq	52(%r12), %rax
	cmpq	%rax, %rbx
	jb	.L12
.L20:
	andl	$31, %edx
	movq	%rdx, %rax
	shrq	$2, %rax
	negq	%rax
	andl	$7, %eax
	je	.L13
	vmovss	20(%r12), %xmm0
	vmovss	%xmm0, (%rbx)
	cmpl	$1, %eax
	je	.L14
	vmovss	24(%r12), %xmm0
	vmovss	%xmm0, 4(%rbx)
	cmpl	$2, %eax
	je	.L15
	vmovss	28(%r12), %xmm0
	vmovss	%xmm0, 8(%rbx)
	cmpl	$3, %eax
	je	.L16
	vmovss	32(%r12), %xmm0
	vmovss	%xmm0, 12(%rbx)
	cmpl	$4, %eax
	je	.L17
	vmovss	36(%r12), %xmm0
	vmovss	%xmm0, 16(%rbx)
	cmpl	$5, %eax
	je	.L18
	vmovss	40(%r12), %xmm0
	vmovss	%xmm0, 20(%rbx)
	cmpl	$7, %eax
	jne	.L19
	vmovss	44(%r12), %xmm0
	movl	$32761, %r10d
	movl	$7, %r11d
	vmovss	%xmm0, 24(%rbx)
.L6:
	movl	$32768, %r8d
	movl	%eax, %edx
	movl	$32760, %r9d
	subl	%eax, %r8d
	movl	$4095, %ecx
.L5:
	leaq	20(,%rdx,4), %rax
	xorl	%edx, %edx
	leaq	(%r12,%rax), %rdi
	leaq	-20(%rbx,%rax), %rsi
	xorl	%eax, %eax
	.p2align 4,,10
	.p2align 3
.L7:
	vmovaps	(%rdi,%rax), %ymm0
	addl	$1, %edx
	vmovups	%ymm0, (%rsi,%rax)
	addq	$32, %rax
	cmpl	%ecx, %edx
	jb	.L7
	leal	(%r11,%r9), %eax
	movl	%r10d, %edx
	subl	%r9d, %edx
	cmpl	%r9d, %r8d
	je	.L2
	movslq	%eax, %rcx
	vmovss	20(%r12,%rcx,4), %xmm0
	vmovss	%xmm0, (%rbx,%rcx,4)
	leal	1(%rax), %ecx
	cmpl	$1, %edx
	je	.L2
	movslq	%ecx, %rcx
	vmovss	20(%r12,%rcx,4), %xmm0
	vmovss	%xmm0, (%rbx,%rcx,4)
	leal	2(%rax), %ecx
	cmpl	$2, %edx
	je	.L2
	movslq	%ecx, %rcx
	vmovss	20(%r12,%rcx,4), %xmm0
	vmovss	%xmm0, (%rbx,%rcx,4)
	leal	3(%rax), %ecx
	cmpl	$3, %edx
	je	.L2
	movslq	%ecx, %rcx
	vmovss	20(%r12,%rcx,4), %xmm0
	vmovss	%xmm0, (%rbx,%rcx,4)
	leal	4(%rax), %ecx
	cmpl	$4, %edx
	je	.L2
	movslq	%ecx, %rcx
	vmovss	20(%r12,%rcx,4), %xmm0
	vmovss	%xmm0, (%rbx,%rcx,4)
	leal	5(%rax), %ecx
	cmpl	$5, %edx
	je	.L2
	movslq	%ecx, %rcx
	addl	$6, %eax
	vmovss	20(%r12,%rcx,4), %xmm0
	vmovss	%xmm0, (%rbx,%rcx,4)
	cmpl	$6, %edx
	je	.L2
	cltq
	vmovss	20(%r12,%rax,4), %xmm0
	vmovss	%xmm0, (%rbx,%rax,4)
.L2:
	addq	$24, %rsp
	popq	%rbx
	popq	%r10
	.cfi_remember_state
	.cfi_def_cfa 10, 0
	popq	%r12
	popq	%rbp
	leaq	-8(%r10), %rsp
	.cfi_def_cfa 7, 8
	ret
	.p2align 4,,10
	.p2align 3
.L12:
	.cfi_restore_state
	xorl	%eax, %eax
	.p2align 4,,10
	.p2align 3
.L3:
	vmovss	(%rdx,%rax), %xmm0
	vmovss	%xmm0, (%rbx,%rax)
	addq	$4, %rax
	cmpq	$131072, %rax
	jne	.L3
	addq	$24, %rsp
	popq	%rbx
	popq	%r10
	.cfi_remember_state
	.cfi_def_cfa 10, 0
	popq	%r12
	popq	%rbp
	leaq	-8(%r10), %rsp
	.cfi_def_cfa 7, 8
	ret
	.p2align 4,,10
	.p2align 3
.L13:
	.cfi_restore_state
	movl	$32768, %r9d
	movl	$4096, %ecx
	movl	$32768, %r8d
	xorl	%edx, %edx
	movl	$32768, %r10d
	xorl	%r11d, %r11d
	jmp	.L5
.L19:
	movl	$32762, %r10d
	movl	$6, %r11d
	jmp	.L6
.L14:
	movl	$32767, %r10d
	movl	$1, %r11d
	jmp	.L6
.L15:
	movl	$32766, %r10d
	movl	$2, %r11d
	jmp	.L6
.L16:
	movl	$32765, %r10d
	movl	$3, %r11d
	jmp	.L6
.L17:
	movl	$32764, %r10d
	movl	$4, %r11d
	jmp	.L6
.L18:
	movl	$32763, %r10d
	movl	$5, %r11d
	jmp	.L6
	.cfi_endproc
.LFE1384:
	.size	_ZN24WaveletCompressorGenericILi32EfE10decompressEbmiPA32_A32_f, .-_ZN24WaveletCompressorGenericILi32EfE10decompressEbmiPA32_A32_f
	.section	.text.unlikely._ZN24WaveletCompressorGenericILi32EfE10decompressEbmiPA32_A32_f,"axG",@progbits,_ZN24WaveletCompressorGenericILi32EfE10decompressEbmiPA32_A32_f,comdat
.LCOLDE1:
	.section	.text._ZN24WaveletCompressorGenericILi32EfE10decompressEbmiPA32_A32_f,"axG",@progbits,_ZN24WaveletCompressorGenericILi32EfE10decompressEbmiPA32_A32_f,comdat
.LHOTE1:
	.section	.text.unlikely._ZN29WaveletCompressorGeneric_zlibILi32EfE15compressed_dataEv,"axG",@progbits,_ZN29WaveletCompressorGeneric_zlibILi32EfE15compressed_dataEv,comdat
	.align 2
.LCOLDB2:
	.section	.text._ZN29WaveletCompressorGeneric_zlibILi32EfE15compressed_dataEv,"axG",@progbits,_ZN29WaveletCompressorGeneric_zlibILi32EfE15compressed_dataEv,comdat
.LHOTB2:
	.align 2
	.p2align 4,,15
	.weak	_ZN29WaveletCompressorGeneric_zlibILi32EfE15compressed_dataEv
	.type	_ZN29WaveletCompressorGeneric_zlibILi32EfE15compressed_dataEv, @function
_ZN29WaveletCompressorGeneric_zlibILi32EfE15compressed_dataEv:
.LFB1387:
	.cfi_startproc
	leaq	266280(%rdi), %rax
	ret
	.cfi_endproc
.LFE1387:
	.size	_ZN29WaveletCompressorGeneric_zlibILi32EfE15compressed_dataEv, .-_ZN29WaveletCompressorGeneric_zlibILi32EfE15compressed_dataEv
	.section	.text.unlikely._ZN29WaveletCompressorGeneric_zlibILi32EfE15compressed_dataEv,"axG",@progbits,_ZN29WaveletCompressorGeneric_zlibILi32EfE15compressed_dataEv,comdat
.LCOLDE2:
	.section	.text._ZN29WaveletCompressorGeneric_zlibILi32EfE15compressed_dataEv,"axG",@progbits,_ZN29WaveletCompressorGeneric_zlibILi32EfE15compressed_dataEv,comdat
.LHOTE2:
	.section	.text.unlikely._ZN24WaveletCompressorGenericILi256EfE15compressed_dataEv,"axG",@progbits,_ZN24WaveletCompressorGenericILi256EfE15compressed_dataEv,comdat
	.align 2
.LCOLDB3:
	.section	.text._ZN24WaveletCompressorGenericILi256EfE15compressed_dataEv,"axG",@progbits,_ZN24WaveletCompressorGenericILi256EfE15compressed_dataEv,comdat
.LHOTB3:
	.align 2
	.p2align 4,,15
	.weak	_ZN24WaveletCompressorGenericILi256EfE15compressed_dataEv
	.type	_ZN24WaveletCompressorGenericILi256EfE15compressed_dataEv, @function
_ZN24WaveletCompressorGenericILi256EfE15compressed_dataEv:
.LFB1392:
	.cfi_startproc
	leaq	67108896(%rdi), %rax
	ret
	.cfi_endproc
.LFE1392:
	.size	_ZN24WaveletCompressorGenericILi256EfE15compressed_dataEv, .-_ZN24WaveletCompressorGenericILi256EfE15compressed_dataEv
	.section	.text.unlikely._ZN24WaveletCompressorGenericILi256EfE15compressed_dataEv,"axG",@progbits,_ZN24WaveletCompressorGenericILi256EfE15compressed_dataEv,comdat
.LCOLDE3:
	.section	.text._ZN24WaveletCompressorGenericILi256EfE15compressed_dataEv,"axG",@progbits,_ZN24WaveletCompressorGenericILi256EfE15compressed_dataEv,comdat
.LHOTE3:
	.section	.text.unlikely._ZN24WaveletCompressorGenericILi256EfE10decompressEbmiPA256_A256_f,"axG",@progbits,_ZN24WaveletCompressorGenericILi256EfE10decompressEbmiPA256_A256_f,comdat
	.align 2
.LCOLDB4:
	.section	.text._ZN24WaveletCompressorGenericILi256EfE10decompressEbmiPA256_A256_f,"axG",@progbits,_ZN24WaveletCompressorGenericILi256EfE10decompressEbmiPA256_A256_f,comdat
.LHOTB4:
	.align 2
	.p2align 4,,15
	.weak	_ZN24WaveletCompressorGenericILi256EfE10decompressEbmiPA256_A256_f
	.type	_ZN24WaveletCompressorGenericILi256EfE10decompressEbmiPA256_A256_f, @function
_ZN24WaveletCompressorGenericILi256EfE10decompressEbmiPA256_A256_f:
.LFB1396:
	.cfi_startproc
	leaq	8(%rsp), %r10
	.cfi_def_cfa 10, 0
	andq	$-32, %rsp
	movzbl	%sil, %esi
	pushq	-8(%r10)
	pushq	%rbp
	.cfi_escape 0x10,0x6,0x2,0x76,0
	movq	%rsp, %rbp
	pushq	%r12
	.cfi_escape 0x10,0xc,0x2,0x76,0x78
	movq	%rdi, %r12
	pushq	%r10
	.cfi_escape 0xf,0x3,0x76,0x70,0x6
	pushq	%rbx
	.cfi_escape 0x10,0x3,0x2,0x76,0x68
	movq	%r8, %rbx
	subq	$24, %rsp
	movq	(%rdi), %rax
	call	*24(%rax)
	leaq	24(%r12), %rdx
	leaq	32(%rbx), %rax
	cmpq	%rax, %rdx
	jae	.L61
	leaq	56(%r12), %rax
	cmpq	%rax, %rbx
	jb	.L53
.L61:
	andl	$31, %edx
	movq	%rdx, %rax
	shrq	$2, %rax
	negq	%rax
	andl	$7, %eax
	je	.L54
	vmovss	24(%r12), %xmm0
	vmovss	%xmm0, (%rbx)
	cmpl	$1, %eax
	je	.L55
	vmovss	28(%r12), %xmm0
	vmovss	%xmm0, 4(%rbx)
	cmpl	$2, %eax
	je	.L56
	vmovss	32(%r12), %xmm0
	vmovss	%xmm0, 8(%rbx)
	cmpl	$3, %eax
	je	.L57
	vmovss	36(%r12), %xmm0
	vmovss	%xmm0, 12(%rbx)
	cmpl	$4, %eax
	je	.L58
	vmovss	40(%r12), %xmm0
	vmovss	%xmm0, 16(%rbx)
	cmpl	$5, %eax
	je	.L59
	vmovss	44(%r12), %xmm0
	vmovss	%xmm0, 20(%rbx)
	cmpl	$7, %eax
	jne	.L60
	vmovss	48(%r12), %xmm0
	movl	$16777209, %r10d
	movl	$7, %r11d
	vmovss	%xmm0, 24(%rbx)
.L47:
	movl	$16777216, %r8d
	movl	%eax, %edx
	movl	$16777208, %r9d
	subl	%eax, %r8d
	movl	$2097151, %ecx
.L46:
	leaq	24(,%rdx,4), %rax
	xorl	%edx, %edx
	leaq	(%r12,%rax), %rdi
	leaq	-24(%rbx,%rax), %rsi
	xorl	%eax, %eax
	.p2align 4,,10
	.p2align 3
.L48:
	vmovaps	(%rdi,%rax), %ymm0
	addl	$1, %edx
	vmovups	%ymm0, (%rsi,%rax)
	addq	$32, %rax
	cmpl	%ecx, %edx
	jb	.L48
	leal	(%r11,%r9), %eax
	movl	%r10d, %edx
	subl	%r9d, %edx
	cmpl	%r9d, %r8d
	je	.L43
	movslq	%eax, %rcx
	vmovss	24(%r12,%rcx,4), %xmm0
	vmovss	%xmm0, (%rbx,%rcx,4)
	leal	1(%rax), %ecx
	cmpl	$1, %edx
	je	.L43
	movslq	%ecx, %rcx
	vmovss	24(%r12,%rcx,4), %xmm0
	vmovss	%xmm0, (%rbx,%rcx,4)
	leal	2(%rax), %ecx
	cmpl	$2, %edx
	je	.L43
	movslq	%ecx, %rcx
	vmovss	24(%r12,%rcx,4), %xmm0
	vmovss	%xmm0, (%rbx,%rcx,4)
	leal	3(%rax), %ecx
	cmpl	$3, %edx
	je	.L43
	movslq	%ecx, %rcx
	vmovss	24(%r12,%rcx,4), %xmm0
	vmovss	%xmm0, (%rbx,%rcx,4)
	leal	4(%rax), %ecx
	cmpl	$4, %edx
	je	.L43
	movslq	%ecx, %rcx
	vmovss	24(%r12,%rcx,4), %xmm0
	vmovss	%xmm0, (%rbx,%rcx,4)
	leal	5(%rax), %ecx
	cmpl	$5, %edx
	je	.L43
	movslq	%ecx, %rcx
	addl	$6, %eax
	vmovss	24(%r12,%rcx,4), %xmm0
	vmovss	%xmm0, (%rbx,%rcx,4)
	cmpl	$6, %edx
	je	.L43
	cltq
	vmovss	24(%r12,%rax,4), %xmm0
	vmovss	%xmm0, (%rbx,%rax,4)
.L43:
	addq	$24, %rsp
	popq	%rbx
	popq	%r10
	.cfi_remember_state
	.cfi_def_cfa 10, 0
	popq	%r12
	popq	%rbp
	leaq	-8(%r10), %rsp
	.cfi_def_cfa 7, 8
	ret
	.p2align 4,,10
	.p2align 3
.L53:
	.cfi_restore_state
	xorl	%eax, %eax
	.p2align 4,,10
	.p2align 3
.L44:
	vmovss	(%rdx,%rax), %xmm0
	vmovss	%xmm0, (%rbx,%rax)
	addq	$4, %rax
	cmpq	$67108864, %rax
	jne	.L44
	addq	$24, %rsp
	popq	%rbx
	popq	%r10
	.cfi_remember_state
	.cfi_def_cfa 10, 0
	popq	%r12
	popq	%rbp
	leaq	-8(%r10), %rsp
	.cfi_def_cfa 7, 8
	ret
	.p2align 4,,10
	.p2align 3
.L54:
	.cfi_restore_state
	movl	$16777216, %r9d
	movl	$2097152, %ecx
	movl	$16777216, %r8d
	xorl	%edx, %edx
	movl	$16777216, %r10d
	xorl	%r11d, %r11d
	jmp	.L46
.L60:
	movl	$16777210, %r10d
	movl	$6, %r11d
	jmp	.L47
.L55:
	movl	$16777215, %r10d
	movl	$1, %r11d
	jmp	.L47
.L56:
	movl	$16777214, %r10d
	movl	$2, %r11d
	jmp	.L47
.L57:
	movl	$16777213, %r10d
	movl	$3, %r11d
	jmp	.L47
.L58:
	movl	$16777212, %r10d
	movl	$4, %r11d
	jmp	.L47
.L59:
	movl	$16777211, %r10d
	movl	$5, %r11d
	jmp	.L47
	.cfi_endproc
.LFE1396:
	.size	_ZN24WaveletCompressorGenericILi256EfE10decompressEbmiPA256_A256_f, .-_ZN24WaveletCompressorGenericILi256EfE10decompressEbmiPA256_A256_f
	.section	.text.unlikely._ZN24WaveletCompressorGenericILi256EfE10decompressEbmiPA256_A256_f,"axG",@progbits,_ZN24WaveletCompressorGenericILi256EfE10decompressEbmiPA256_A256_f,comdat
.LCOLDE4:
	.section	.text._ZN24WaveletCompressorGenericILi256EfE10decompressEbmiPA256_A256_f,"axG",@progbits,_ZN24WaveletCompressorGenericILi256EfE10decompressEbmiPA256_A256_f,comdat
.LHOTE4:
	.section	.text.unlikely._ZN29WaveletCompressorGeneric_zlibILi256EfE15compressed_dataEv,"axG",@progbits,_ZN29WaveletCompressorGeneric_zlibILi256EfE15compressed_dataEv,comdat
	.align 2
.LCOLDB5:
	.section	.text._ZN29WaveletCompressorGeneric_zlibILi256EfE15compressed_dataEv,"axG",@progbits,_ZN29WaveletCompressorGeneric_zlibILi256EfE15compressed_dataEv,comdat
.LHOTB5:
	.align 2
	.p2align 4,,15
	.weak	_ZN29WaveletCompressorGeneric_zlibILi256EfE15compressed_dataEv
	.type	_ZN29WaveletCompressorGeneric_zlibILi256EfE15compressed_dataEv, @function
_ZN29WaveletCompressorGeneric_zlibILi256EfE15compressed_dataEv:
.LFB1399:
	.cfi_startproc
	leaq	136314920(%rdi), %rax
	ret
	.cfi_endproc
.LFE1399:
	.size	_ZN29WaveletCompressorGeneric_zlibILi256EfE15compressed_dataEv, .-_ZN29WaveletCompressorGeneric_zlibILi256EfE15compressed_dataEv
	.section	.text.unlikely._ZN29WaveletCompressorGeneric_zlibILi256EfE15compressed_dataEv,"axG",@progbits,_ZN29WaveletCompressorGeneric_zlibILi256EfE15compressed_dataEv,comdat
.LCOLDE5:
	.section	.text._ZN29WaveletCompressorGeneric_zlibILi256EfE15compressed_dataEv,"axG",@progbits,_ZN29WaveletCompressorGeneric_zlibILi256EfE15compressed_dataEv,comdat
.LHOTE5:
	.section	.text.unlikely,"ax",@progbits
.LCOLDB6:
	.text
.LHOTB6:
	.p2align 4,,15
	.globl	_Z9swapbytesPhi
	.type	_Z9swapbytesPhi, @function
_Z9swapbytesPhi:
.LFB1368:
	.cfi_startproc
	testl	%esi, %esi
	jle	.L108
	pushq	%r12
	.cfi_def_cfa_offset 16
	.cfi_offset 12, -16
	leal	-1(%rsi), %edx
	pushq	%rbp
	.cfi_def_cfa_offset 24
	.cfi_offset 6, -24
	movq	%rdx, %r12
	movq	%rdi, %rbp
	addq	$1, %rdx
	pushq	%rbx
	.cfi_def_cfa_offset 32
	.cfi_offset 3, -32
	movl	%esi, %ebx
	movq	%rdi, %rsi
	subq	$16, %rsp
	.cfi_def_cfa_offset 48
	movq	%rsp, %rdi
	call	memcpy
	movzbl	(%rsp), %edx
	movslq	%ebx, %rax
	movb	%dl, -1(%rbp,%rax)
	cmpl	$1, %ebx
	je	.L82
	movzbl	1(%rsp), %eax
	movslq	%r12d, %r12
	movb	%al, -1(%rbp,%r12)
	cmpl	$2, %ebx
	je	.L82
	movzbl	2(%rsp), %edx
	leal	-2(%rbx), %eax
	cltq
	movb	%dl, -1(%rbp,%rax)
	cmpl	$3, %ebx
	je	.L82
	movzbl	3(%rsp), %edx
	leal	-3(%rbx), %eax
	cltq
	movb	%dl, -1(%rbp,%rax)
	cmpl	$4, %ebx
	je	.L82
	movzbl	4(%rsp), %edx
	leal	-4(%rbx), %eax
	cltq
	movb	%dl, -1(%rbp,%rax)
	cmpl	$5, %ebx
	je	.L82
	movzbl	5(%rsp), %edx
	leal	-5(%rbx), %eax
	cltq
	movb	%dl, -1(%rbp,%rax)
	cmpl	$6, %ebx
	je	.L82
	movzbl	6(%rsp), %edx
	leal	-6(%rbx), %eax
	cltq
	movb	%dl, -1(%rbp,%rax)
	cmpl	$7, %ebx
	je	.L82
	movzbl	7(%rsp), %eax
	subl	$7, %ebx
	movslq	%ebx, %rbx
	movb	%al, -1(%rbp,%rbx)
.L82:
	addq	$16, %rsp
	.cfi_def_cfa_offset 32
	popq	%rbx
	.cfi_restore 3
	.cfi_def_cfa_offset 24
	popq	%rbp
	.cfi_restore 6
	.cfi_def_cfa_offset 16
	popq	%r12
	.cfi_restore 12
	.cfi_def_cfa_offset 8
.L108:
	ret
	.cfi_endproc
.LFE1368:
	.size	_Z9swapbytesPhi, .-_Z9swapbytesPhi
	.section	.text.unlikely
.LCOLDE6:
	.text
.LHOTE6:
	.section	.text.unlikely
.LCOLDB7:
	.text
.LHOTB7:
	.p2align 4,,15
	.globl	_Z8_cvt2f16f
	.type	_Z8_cvt2f16f, @function
_Z8_cvt2f16f:
.LFB1371:
	.cfi_startproc
	vmovd	%xmm0, %ecx
	vmovd	%xmm0, %eax
	vmovd	%xmm0, %edx
	andl	$2147483647, %ecx
	andl	$-2147483648, %eax
	shrl	$23, %ecx
	shrl	$16, %eax
	subl	$112, %ecx
	movl	%eax, %esi
	cmpl	$30, %ecx
	jg	.L112
	xorl	%eax, %eax
	testl	%ecx, %ecx
	jg	.L114
	andl	$8388607, %edx
	orl	%esi, %eax
	shrl	$13, %edx
	orl	%edx, %eax
	ret
	.p2align 4,,10
	.p2align 3
.L112:
	movl	$31, %eax
.L110:
	sall	$10, %eax
	andl	$8388607, %edx
	orl	%esi, %eax
	shrl	$13, %edx
	orl	%edx, %eax
	ret
	.p2align 4,,10
	.p2align 3
.L114:
	movl	%ecx, %eax
	jmp	.L110
	.cfi_endproc
.LFE1371:
	.size	_Z8_cvt2f16f, .-_Z8_cvt2f16f
	.section	.text.unlikely
.LCOLDE7:
	.text
.LHOTE7:
	.section	.text.unlikely
.LCOLDB8:
	.text
.LHOTB8:
	.p2align 4,,15
	.globl	_Z11_cvtfromf16t
	.type	_Z11_cvtfromf16t, @function
_Z11_cvtfromf16t:
.LFB1372:
	.cfi_startproc
	movl	%edi, %eax
	movl	%edi, %edx
	andl	$31744, %edi
	andl	$1023, %eax
	andw	$-32768, %dx
	sall	$13, %edi
	sall	$13, %eax
	movl	%eax, %ecx
	movzwl	%dx, %eax
	leal	939524096(%rdi), %edx
	sall	$16, %eax
	orl	%ecx, %eax
	orl	%edx, %eax
	vmovd	%eax, %xmm0
	ret
	.cfi_endproc
.LFE1372:
	.size	_Z11_cvtfromf16t, .-_Z11_cvtfromf16t
	.section	.text.unlikely
.LCOLDE8:
	.text
.LHOTE8:
	.section	.text.unlikely._ZN24WaveletCompressorGenericILi32EfE17uncompressed_dataEv,"axG",@progbits,_ZN24WaveletCompressorGenericILi32EfE17uncompressed_dataEv,comdat
	.align 2
.LCOLDB9:
	.section	.text._ZN24WaveletCompressorGenericILi32EfE17uncompressed_dataEv,"axG",@progbits,_ZN24WaveletCompressorGenericILi32EfE17uncompressed_dataEv,comdat
.LHOTB9:
	.align 2
	.p2align 4,,15
	.weak	_ZN24WaveletCompressorGenericILi32EfE17uncompressed_dataEv
	.type	_ZN24WaveletCompressorGenericILi32EfE17uncompressed_dataEv, @function
_ZN24WaveletCompressorGenericILi32EfE17uncompressed_dataEv:
.LFB1379:
	.cfi_startproc
	leaq	20(%rdi), %rax
	ret
	.cfi_endproc
.LFE1379:
	.size	_ZN24WaveletCompressorGenericILi32EfE17uncompressed_dataEv, .-_ZN24WaveletCompressorGenericILi32EfE17uncompressed_dataEv
	.section	.text.unlikely._ZN24WaveletCompressorGenericILi32EfE17uncompressed_dataEv,"axG",@progbits,_ZN24WaveletCompressorGenericILi32EfE17uncompressed_dataEv,comdat
.LCOLDE9:
	.section	.text._ZN24WaveletCompressorGenericILi32EfE17uncompressed_dataEv,"axG",@progbits,_ZN24WaveletCompressorGenericILi32EfE17uncompressed_dataEv,comdat
.LHOTE9:
	.section	.text.unlikely._ZN24WaveletCompressorGenericILi32EfE7copy_toEPA32_A32_f,"axG",@progbits,_ZN24WaveletCompressorGenericILi32EfE7copy_toEPA32_A32_f,comdat
	.align 2
.LCOLDB10:
	.section	.text._ZN24WaveletCompressorGenericILi32EfE7copy_toEPA32_A32_f,"axG",@progbits,_ZN24WaveletCompressorGenericILi32EfE7copy_toEPA32_A32_f,comdat
.LHOTB10:
	.align 2
	.p2align 4,,15
	.weak	_ZN24WaveletCompressorGenericILi32EfE7copy_toEPA32_A32_f
	.type	_ZN24WaveletCompressorGenericILi32EfE7copy_toEPA32_A32_f, @function
_ZN24WaveletCompressorGenericILi32EfE7copy_toEPA32_A32_f:
.LFB1385:
	.cfi_startproc
	leaq	8(%rsp), %r10
	.cfi_def_cfa 10, 0
	andq	$-32, %rsp
	pushq	-8(%r10)
	leaq	20(%rdi), %rdx
	pushq	%rbp
	leaq	32(%rsi), %rax
	.cfi_escape 0x10,0x6,0x2,0x76,0
	movq	%rsp, %rbp
	pushq	%r12
	pushq	%r10
	.cfi_escape 0xf,0x3,0x76,0x70,0x6
	.cfi_escape 0x10,0xc,0x2,0x76,0x78
	pushq	%rbx
	.cfi_escape 0x10,0x3,0x2,0x76,0x68
	cmpq	%rax, %rdx
	jae	.L135
	leaq	52(%rdi), %rax
	cmpq	%rax, %rsi
	jb	.L127
.L135:
	andl	$31, %edx
	movq	%rdx, %rax
	shrq	$2, %rax
	negq	%rax
	andl	$7, %eax
	je	.L128
	vmovss	20(%rdi), %xmm0
	vmovss	%xmm0, (%rsi)
	cmpl	$1, %eax
	je	.L129
	vmovss	24(%rdi), %xmm0
	vmovss	%xmm0, 4(%rsi)
	cmpl	$2, %eax
	je	.L130
	vmovss	28(%rdi), %xmm0
	vmovss	%xmm0, 8(%rsi)
	cmpl	$3, %eax
	je	.L131
	vmovss	32(%rdi), %xmm0
	vmovss	%xmm0, 12(%rsi)
	cmpl	$4, %eax
	je	.L132
	vmovss	36(%rdi), %xmm0
	vmovss	%xmm0, 16(%rsi)
	cmpl	$5, %eax
	je	.L133
	vmovss	40(%rdi), %xmm0
	vmovss	%xmm0, 20(%rsi)
	cmpl	$7, %eax
	jne	.L134
	vmovss	44(%rdi), %xmm0
	movl	$32761, %ebx
	movl	$7, %r12d
	vmovss	%xmm0, 24(%rsi)
.L121:
	movl	$32768, %r10d
	movl	%eax, %edx
	movl	$32760, %r11d
	subl	%eax, %r10d
	movl	$4095, %ecx
.L120:
	leaq	20(,%rdx,4), %rax
	xorl	%edx, %edx
	leaq	(%rdi,%rax), %r9
	leaq	-20(%rsi,%rax), %r8
	xorl	%eax, %eax
	.p2align 4,,10
	.p2align 3
.L122:
	vmovaps	(%r9,%rax), %ymm0
	addl	$1, %edx
	vmovups	%ymm0, (%r8,%rax)
	addq	$32, %rax
	cmpl	%ecx, %edx
	jb	.L122
	leal	(%r12,%r11), %eax
	subl	%r11d, %ebx
	cmpl	%r11d, %r10d
	je	.L117
	movslq	%eax, %rcx
	vmovss	20(%rdi,%rcx,4), %xmm0
	vmovss	%xmm0, (%rsi,%rcx,4)
	leal	1(%rax), %ecx
	cmpl	$1, %ebx
	je	.L117
	movslq	%ecx, %rcx
	vmovss	20(%rdi,%rcx,4), %xmm0
	vmovss	%xmm0, (%rsi,%rcx,4)
	leal	2(%rax), %ecx
	cmpl	$2, %ebx
	je	.L117
	movslq	%ecx, %rcx
	vmovss	20(%rdi,%rcx,4), %xmm0
	vmovss	%xmm0, (%rsi,%rcx,4)
	leal	3(%rax), %ecx
	cmpl	$3, %ebx
	je	.L117
	movslq	%ecx, %rcx
	vmovss	20(%rdi,%rcx,4), %xmm0
	vmovss	%xmm0, (%rsi,%rcx,4)
	leal	4(%rax), %ecx
	cmpl	$4, %ebx
	je	.L117
	movslq	%ecx, %rcx
	vmovss	20(%rdi,%rcx,4), %xmm0
	vmovss	%xmm0, (%rsi,%rcx,4)
	leal	5(%rax), %ecx
	cmpl	$5, %ebx
	je	.L117
	movslq	%ecx, %rcx
	addl	$6, %eax
	vmovss	20(%rdi,%rcx,4), %xmm0
	vmovss	%xmm0, (%rsi,%rcx,4)
	cmpl	$6, %ebx
	je	.L117
	cltq
	vmovss	20(%rdi,%rax,4), %xmm0
	vmovss	%xmm0, (%rsi,%rax,4)
.L117:
	popq	%rbx
	popq	%r10
	.cfi_remember_state
	.cfi_def_cfa 10, 0
	popq	%r12
	popq	%rbp
	leaq	-8(%r10), %rsp
	.cfi_def_cfa 7, 8
	ret
	.p2align 4,,10
	.p2align 3
.L127:
	.cfi_restore_state
	xorl	%eax, %eax
	.p2align 4,,10
	.p2align 3
.L118:
	vmovss	(%rdx,%rax), %xmm0
	vmovss	%xmm0, (%rsi,%rax)
	addq	$4, %rax
	cmpq	$131072, %rax
	jne	.L118
	popq	%rbx
	popq	%r10
	.cfi_remember_state
	.cfi_def_cfa 10, 0
	popq	%r12
	popq	%rbp
	leaq	-8(%r10), %rsp
	.cfi_def_cfa 7, 8
	ret
	.p2align 4,,10
	.p2align 3
.L128:
	.cfi_restore_state
	movl	$32768, %r11d
	movl	$4096, %ecx
	movl	$32768, %r10d
	xorl	%edx, %edx
	movl	$32768, %ebx
	xorl	%r12d, %r12d
	jmp	.L120
.L134:
	movl	$32762, %ebx
	movl	$6, %r12d
	jmp	.L121
.L129:
	movl	$32767, %ebx
	movl	$1, %r12d
	jmp	.L121
.L130:
	movl	$32766, %ebx
	movl	$2, %r12d
	jmp	.L121
.L131:
	movl	$32765, %ebx
	movl	$3, %r12d
	jmp	.L121
.L132:
	movl	$32764, %ebx
	movl	$4, %r12d
	jmp	.L121
.L133:
	movl	$32763, %ebx
	movl	$5, %r12d
	jmp	.L121
	.cfi_endproc
.LFE1385:
	.size	_ZN24WaveletCompressorGenericILi32EfE7copy_toEPA32_A32_f, .-_ZN24WaveletCompressorGenericILi32EfE7copy_toEPA32_A32_f
	.section	.text.unlikely._ZN24WaveletCompressorGenericILi32EfE7copy_toEPA32_A32_f,"axG",@progbits,_ZN24WaveletCompressorGenericILi32EfE7copy_toEPA32_A32_f,comdat
.LCOLDE10:
	.section	.text._ZN24WaveletCompressorGenericILi32EfE7copy_toEPA32_A32_f,"axG",@progbits,_ZN24WaveletCompressorGenericILi32EfE7copy_toEPA32_A32_f,comdat
.LHOTE10:
	.section	.text.unlikely._ZN24WaveletCompressorGenericILi32EfE9copy_fromEPA32_A32_Kf,"axG",@progbits,_ZN24WaveletCompressorGenericILi32EfE9copy_fromEPA32_A32_Kf,comdat
	.align 2
.LCOLDB11:
	.section	.text._ZN24WaveletCompressorGenericILi32EfE9copy_fromEPA32_A32_Kf,"axG",@progbits,_ZN24WaveletCompressorGenericILi32EfE9copy_fromEPA32_A32_Kf,comdat
.LHOTB11:
	.align 2
	.p2align 4,,15
	.weak	_ZN24WaveletCompressorGenericILi32EfE9copy_fromEPA32_A32_Kf
	.type	_ZN24WaveletCompressorGenericILi32EfE9copy_fromEPA32_A32_Kf, @function
_ZN24WaveletCompressorGenericILi32EfE9copy_fromEPA32_A32_Kf:
.LFB1386:
	.cfi_startproc
	leaq	8(%rsp), %r10
	.cfi_def_cfa 10, 0
	andq	$-32, %rsp
	pushq	-8(%r10)
	leaq	20(%rdi), %rdx
	pushq	%rbp
	leaq	32(%rsi), %rax
	.cfi_escape 0x10,0x6,0x2,0x76,0
	movq	%rsp, %rbp
	pushq	%r12
	pushq	%r10
	.cfi_escape 0xf,0x3,0x76,0x70,0x6
	.cfi_escape 0x10,0xc,0x2,0x76,0x78
	pushq	%rbx
	.cfi_escape 0x10,0x3,0x2,0x76,0x68
	cmpq	%rax, %rdx
	jae	.L173
	leaq	52(%rdi), %rax
	cmpq	%rax, %rsi
	jb	.L165
.L173:
	movq	%rsi, %rax
	andl	$31, %eax
	shrq	$2, %rax
	negq	%rax
	andl	$7, %eax
	je	.L166
	vmovss	(%rsi), %xmm0
	vmovss	%xmm0, 20(%rdi)
	cmpl	$1, %eax
	je	.L167
	vmovss	4(%rsi), %xmm0
	vmovss	%xmm0, 24(%rdi)
	cmpl	$2, %eax
	je	.L168
	vmovss	8(%rsi), %xmm0
	vmovss	%xmm0, 28(%rdi)
	cmpl	$3, %eax
	je	.L169
	vmovss	12(%rsi), %xmm0
	vmovss	%xmm0, 32(%rdi)
	cmpl	$4, %eax
	je	.L170
	vmovss	16(%rsi), %xmm0
	vmovss	%xmm0, 36(%rdi)
	cmpl	$5, %eax
	je	.L171
	vmovss	20(%rsi), %xmm0
	vmovss	%xmm0, 40(%rdi)
	cmpl	$7, %eax
	jne	.L172
	vmovss	24(%rsi), %xmm0
	movl	$32761, %ebx
	movl	$7, %r12d
	vmovss	%xmm0, 44(%rdi)
.L159:
	movl	$32768, %r10d
	movl	%eax, %r8d
	movl	$32760, %r11d
	subl	%eax, %r10d
	movl	$4095, %ecx
.L158:
	salq	$2, %r8
	xorl	%eax, %eax
	xorl	%edx, %edx
	leaq	(%rsi,%r8), %r9
	leaq	20(%rdi,%r8), %r8
	.p2align 4,,10
	.p2align 3
.L160:
	vmovaps	(%r9,%rax), %ymm0
	addl	$1, %edx
	vmovups	%ymm0, (%r8,%rax)
	addq	$32, %rax
	cmpl	%ecx, %edx
	jb	.L160
	leal	(%r12,%r11), %eax
	subl	%r11d, %ebx
	cmpl	%r11d, %r10d
	je	.L155
	movslq	%eax, %rcx
	vmovss	(%rsi,%rcx,4), %xmm0
	vmovss	%xmm0, 20(%rdi,%rcx,4)
	leal	1(%rax), %ecx
	cmpl	$1, %ebx
	je	.L155
	movslq	%ecx, %rcx
	vmovss	(%rsi,%rcx,4), %xmm0
	vmovss	%xmm0, 20(%rdi,%rcx,4)
	leal	2(%rax), %ecx
	cmpl	$2, %ebx
	je	.L155
	movslq	%ecx, %rcx
	vmovss	(%rsi,%rcx,4), %xmm0
	vmovss	%xmm0, 20(%rdi,%rcx,4)
	leal	3(%rax), %ecx
	cmpl	$3, %ebx
	je	.L155
	movslq	%ecx, %rcx
	vmovss	(%rsi,%rcx,4), %xmm0
	vmovss	%xmm0, 20(%rdi,%rcx,4)
	leal	4(%rax), %ecx
	cmpl	$4, %ebx
	je	.L155
	movslq	%ecx, %rcx
	vmovss	(%rsi,%rcx,4), %xmm0
	vmovss	%xmm0, 20(%rdi,%rcx,4)
	leal	5(%rax), %ecx
	cmpl	$5, %ebx
	je	.L155
	movslq	%ecx, %rcx
	addl	$6, %eax
	vmovss	(%rsi,%rcx,4), %xmm0
	vmovss	%xmm0, 20(%rdi,%rcx,4)
	cmpl	$6, %ebx
	je	.L155
	cltq
	vmovss	(%rsi,%rax,4), %xmm0
	vmovss	%xmm0, 20(%rdi,%rax,4)
.L155:
	popq	%rbx
	popq	%r10
	.cfi_remember_state
	.cfi_def_cfa 10, 0
	popq	%r12
	popq	%rbp
	leaq	-8(%r10), %rsp
	.cfi_def_cfa 7, 8
	ret
	.p2align 4,,10
	.p2align 3
.L165:
	.cfi_restore_state
	xorl	%eax, %eax
	.p2align 4,,10
	.p2align 3
.L156:
	vmovss	(%rsi,%rax), %xmm0
	vmovss	%xmm0, (%rdx,%rax)
	addq	$4, %rax
	cmpq	$131072, %rax
	jne	.L156
	popq	%rbx
	popq	%r10
	.cfi_remember_state
	.cfi_def_cfa 10, 0
	popq	%r12
	popq	%rbp
	leaq	-8(%r10), %rsp
	.cfi_def_cfa 7, 8
	ret
	.p2align 4,,10
	.p2align 3
.L166:
	.cfi_restore_state
	movl	$32768, %r11d
	movl	$4096, %ecx
	movl	$32768, %r10d
	xorl	%r8d, %r8d
	movl	$32768, %ebx
	xorl	%r12d, %r12d
	jmp	.L158
.L172:
	movl	$32762, %ebx
	movl	$6, %r12d
	jmp	.L159
.L167:
	movl	$32767, %ebx
	movl	$1, %r12d
	jmp	.L159
.L168:
	movl	$32766, %ebx
	movl	$2, %r12d
	jmp	.L159
.L169:
	movl	$32765, %ebx
	movl	$3, %r12d
	jmp	.L159
.L170:
	movl	$32764, %ebx
	movl	$4, %r12d
	jmp	.L159
.L171:
	movl	$32763, %ebx
	movl	$5, %r12d
	jmp	.L159
	.cfi_endproc
.LFE1386:
	.size	_ZN24WaveletCompressorGenericILi32EfE9copy_fromEPA32_A32_Kf, .-_ZN24WaveletCompressorGenericILi32EfE9copy_fromEPA32_A32_Kf
	.section	.text.unlikely._ZN24WaveletCompressorGenericILi32EfE9copy_fromEPA32_A32_Kf,"axG",@progbits,_ZN24WaveletCompressorGenericILi32EfE9copy_fromEPA32_A32_Kf,comdat
.LCOLDE11:
	.section	.text._ZN24WaveletCompressorGenericILi32EfE9copy_fromEPA32_A32_Kf,"axG",@progbits,_ZN24WaveletCompressorGenericILi32EfE9copy_fromEPA32_A32_Kf,comdat
.LHOTE11:
	.section	.text.unlikely._ZN24WaveletCompressorGenericILi256EfE17uncompressed_dataEv,"axG",@progbits,_ZN24WaveletCompressorGenericILi256EfE17uncompressed_dataEv,comdat
	.align 2
.LCOLDB12:
	.section	.text._ZN24WaveletCompressorGenericILi256EfE17uncompressed_dataEv,"axG",@progbits,_ZN24WaveletCompressorGenericILi256EfE17uncompressed_dataEv,comdat
.LHOTB12:
	.align 2
	.p2align 4,,15
	.weak	_ZN24WaveletCompressorGenericILi256EfE17uncompressed_dataEv
	.type	_ZN24WaveletCompressorGenericILi256EfE17uncompressed_dataEv, @function
_ZN24WaveletCompressorGenericILi256EfE17uncompressed_dataEv:
.LFB1391:
	.cfi_startproc
	leaq	24(%rdi), %rax
	ret
	.cfi_endproc
.LFE1391:
	.size	_ZN24WaveletCompressorGenericILi256EfE17uncompressed_dataEv, .-_ZN24WaveletCompressorGenericILi256EfE17uncompressed_dataEv
	.section	.text.unlikely._ZN24WaveletCompressorGenericILi256EfE17uncompressed_dataEv,"axG",@progbits,_ZN24WaveletCompressorGenericILi256EfE17uncompressed_dataEv,comdat
.LCOLDE12:
	.section	.text._ZN24WaveletCompressorGenericILi256EfE17uncompressed_dataEv,"axG",@progbits,_ZN24WaveletCompressorGenericILi256EfE17uncompressed_dataEv,comdat
.LHOTE12:
	.section	.text.unlikely._ZN24WaveletCompressorGenericILi256EfE7copy_toEPA256_A256_f,"axG",@progbits,_ZN24WaveletCompressorGenericILi256EfE7copy_toEPA256_A256_f,comdat
	.align 2
.LCOLDB13:
	.section	.text._ZN24WaveletCompressorGenericILi256EfE7copy_toEPA256_A256_f,"axG",@progbits,_ZN24WaveletCompressorGenericILi256EfE7copy_toEPA256_A256_f,comdat
.LHOTB13:
	.align 2
	.p2align 4,,15
	.weak	_ZN24WaveletCompressorGenericILi256EfE7copy_toEPA256_A256_f
	.type	_ZN24WaveletCompressorGenericILi256EfE7copy_toEPA256_A256_f, @function
_ZN24WaveletCompressorGenericILi256EfE7copy_toEPA256_A256_f:
.LFB1397:
	.cfi_startproc
	leaq	8(%rsp), %r10
	.cfi_def_cfa 10, 0
	andq	$-32, %rsp
	pushq	-8(%r10)
	leaq	24(%rdi), %rdx
	pushq	%rbp
	leaq	32(%rsi), %rax
	.cfi_escape 0x10,0x6,0x2,0x76,0
	movq	%rsp, %rbp
	pushq	%r12
	pushq	%r10
	.cfi_escape 0xf,0x3,0x76,0x70,0x6
	.cfi_escape 0x10,0xc,0x2,0x76,0x78
	pushq	%rbx
	.cfi_escape 0x10,0x3,0x2,0x76,0x68
	cmpq	%rax, %rdx
	jae	.L212
	leaq	56(%rdi), %rax
	cmpq	%rax, %rsi
	jb	.L204
.L212:
	andl	$31, %edx
	movq	%rdx, %rax
	shrq	$2, %rax
	negq	%rax
	andl	$7, %eax
	je	.L205
	vmovss	24(%rdi), %xmm0
	vmovss	%xmm0, (%rsi)
	cmpl	$1, %eax
	je	.L206
	vmovss	28(%rdi), %xmm0
	vmovss	%xmm0, 4(%rsi)
	cmpl	$2, %eax
	je	.L207
	vmovss	32(%rdi), %xmm0
	vmovss	%xmm0, 8(%rsi)
	cmpl	$3, %eax
	je	.L208
	vmovss	36(%rdi), %xmm0
	vmovss	%xmm0, 12(%rsi)
	cmpl	$4, %eax
	je	.L209
	vmovss	40(%rdi), %xmm0
	vmovss	%xmm0, 16(%rsi)
	cmpl	$5, %eax
	je	.L210
	vmovss	44(%rdi), %xmm0
	vmovss	%xmm0, 20(%rsi)
	cmpl	$7, %eax
	jne	.L211
	vmovss	48(%rdi), %xmm0
	movl	$16777209, %ebx
	movl	$7, %r12d
	vmovss	%xmm0, 24(%rsi)
.L198:
	movl	$16777216, %r10d
	movl	%eax, %edx
	movl	$16777208, %r11d
	subl	%eax, %r10d
	movl	$2097151, %ecx
.L197:
	leaq	24(,%rdx,4), %rax
	xorl	%edx, %edx
	leaq	(%rdi,%rax), %r9
	leaq	-24(%rsi,%rax), %r8
	xorl	%eax, %eax
	.p2align 4,,10
	.p2align 3
.L199:
	vmovaps	(%r9,%rax), %ymm0
	addl	$1, %edx
	vmovups	%ymm0, (%r8,%rax)
	addq	$32, %rax
	cmpl	%ecx, %edx
	jb	.L199
	leal	(%r12,%r11), %eax
	subl	%r11d, %ebx
	cmpl	%r11d, %r10d
	je	.L194
	movslq	%eax, %rcx
	vmovss	24(%rdi,%rcx,4), %xmm0
	vmovss	%xmm0, (%rsi,%rcx,4)
	leal	1(%rax), %ecx
	cmpl	$1, %ebx
	je	.L194
	movslq	%ecx, %rcx
	vmovss	24(%rdi,%rcx,4), %xmm0
	vmovss	%xmm0, (%rsi,%rcx,4)
	leal	2(%rax), %ecx
	cmpl	$2, %ebx
	je	.L194
	movslq	%ecx, %rcx
	vmovss	24(%rdi,%rcx,4), %xmm0
	vmovss	%xmm0, (%rsi,%rcx,4)
	leal	3(%rax), %ecx
	cmpl	$3, %ebx
	je	.L194
	movslq	%ecx, %rcx
	vmovss	24(%rdi,%rcx,4), %xmm0
	vmovss	%xmm0, (%rsi,%rcx,4)
	leal	4(%rax), %ecx
	cmpl	$4, %ebx
	je	.L194
	movslq	%ecx, %rcx
	vmovss	24(%rdi,%rcx,4), %xmm0
	vmovss	%xmm0, (%rsi,%rcx,4)
	leal	5(%rax), %ecx
	cmpl	$5, %ebx
	je	.L194
	movslq	%ecx, %rcx
	addl	$6, %eax
	vmovss	24(%rdi,%rcx,4), %xmm0
	vmovss	%xmm0, (%rsi,%rcx,4)
	cmpl	$6, %ebx
	je	.L194
	cltq
	vmovss	24(%rdi,%rax,4), %xmm0
	vmovss	%xmm0, (%rsi,%rax,4)
.L194:
	popq	%rbx
	popq	%r10
	.cfi_remember_state
	.cfi_def_cfa 10, 0
	popq	%r12
	popq	%rbp
	leaq	-8(%r10), %rsp
	.cfi_def_cfa 7, 8
	ret
	.p2align 4,,10
	.p2align 3
.L204:
	.cfi_restore_state
	xorl	%eax, %eax
	.p2align 4,,10
	.p2align 3
.L195:
	vmovss	(%rdx,%rax), %xmm0
	vmovss	%xmm0, (%rsi,%rax)
	addq	$4, %rax
	cmpq	$67108864, %rax
	jne	.L195
	popq	%rbx
	popq	%r10
	.cfi_remember_state
	.cfi_def_cfa 10, 0
	popq	%r12
	popq	%rbp
	leaq	-8(%r10), %rsp
	.cfi_def_cfa 7, 8
	ret
	.p2align 4,,10
	.p2align 3
.L205:
	.cfi_restore_state
	movl	$16777216, %r11d
	movl	$2097152, %ecx
	movl	$16777216, %r10d
	xorl	%edx, %edx
	movl	$16777216, %ebx
	xorl	%r12d, %r12d
	jmp	.L197
.L211:
	movl	$16777210, %ebx
	movl	$6, %r12d
	jmp	.L198
.L206:
	movl	$16777215, %ebx
	movl	$1, %r12d
	jmp	.L198
.L207:
	movl	$16777214, %ebx
	movl	$2, %r12d
	jmp	.L198
.L208:
	movl	$16777213, %ebx
	movl	$3, %r12d
	jmp	.L198
.L209:
	movl	$16777212, %ebx
	movl	$4, %r12d
	jmp	.L198
.L210:
	movl	$16777211, %ebx
	movl	$5, %r12d
	jmp	.L198
	.cfi_endproc
.LFE1397:
	.size	_ZN24WaveletCompressorGenericILi256EfE7copy_toEPA256_A256_f, .-_ZN24WaveletCompressorGenericILi256EfE7copy_toEPA256_A256_f
	.section	.text.unlikely._ZN24WaveletCompressorGenericILi256EfE7copy_toEPA256_A256_f,"axG",@progbits,_ZN24WaveletCompressorGenericILi256EfE7copy_toEPA256_A256_f,comdat
.LCOLDE13:
	.section	.text._ZN24WaveletCompressorGenericILi256EfE7copy_toEPA256_A256_f,"axG",@progbits,_ZN24WaveletCompressorGenericILi256EfE7copy_toEPA256_A256_f,comdat
.LHOTE13:
	.section	.text.unlikely._ZN24WaveletCompressorGenericILi256EfE9copy_fromEPA256_A256_Kf,"axG",@progbits,_ZN24WaveletCompressorGenericILi256EfE9copy_fromEPA256_A256_Kf,comdat
	.align 2
.LCOLDB14:
	.section	.text._ZN24WaveletCompressorGenericILi256EfE9copy_fromEPA256_A256_Kf,"axG",@progbits,_ZN24WaveletCompressorGenericILi256EfE9copy_fromEPA256_A256_Kf,comdat
.LHOTB14:
	.align 2
	.p2align 4,,15
	.weak	_ZN24WaveletCompressorGenericILi256EfE9copy_fromEPA256_A256_Kf
	.type	_ZN24WaveletCompressorGenericILi256EfE9copy_fromEPA256_A256_Kf, @function
_ZN24WaveletCompressorGenericILi256EfE9copy_fromEPA256_A256_Kf:
.LFB1398:
	.cfi_startproc
	leaq	8(%rsp), %r10
	.cfi_def_cfa 10, 0
	andq	$-32, %rsp
	pushq	-8(%r10)
	leaq	24(%rdi), %rdx
	pushq	%rbp
	leaq	32(%rsi), %rax
	.cfi_escape 0x10,0x6,0x2,0x76,0
	movq	%rsp, %rbp
	pushq	%r12
	pushq	%r10
	.cfi_escape 0xf,0x3,0x76,0x70,0x6
	.cfi_escape 0x10,0xc,0x2,0x76,0x78
	pushq	%rbx
	.cfi_escape 0x10,0x3,0x2,0x76,0x68
	cmpq	%rax, %rdx
	jae	.L250
	leaq	56(%rdi), %rax
	cmpq	%rax, %rsi
	jb	.L242
.L250:
	movq	%rsi, %rax
	andl	$31, %eax
	shrq	$2, %rax
	negq	%rax
	andl	$7, %eax
	je	.L243
	vmovss	(%rsi), %xmm0
	vmovss	%xmm0, 24(%rdi)
	cmpl	$1, %eax
	je	.L244
	vmovss	4(%rsi), %xmm0
	vmovss	%xmm0, 28(%rdi)
	cmpl	$2, %eax
	je	.L245
	vmovss	8(%rsi), %xmm0
	vmovss	%xmm0, 32(%rdi)
	cmpl	$3, %eax
	je	.L246
	vmovss	12(%rsi), %xmm0
	vmovss	%xmm0, 36(%rdi)
	cmpl	$4, %eax
	je	.L247
	vmovss	16(%rsi), %xmm0
	vmovss	%xmm0, 40(%rdi)
	cmpl	$5, %eax
	je	.L248
	vmovss	20(%rsi), %xmm0
	vmovss	%xmm0, 44(%rdi)
	cmpl	$7, %eax
	jne	.L249
	vmovss	24(%rsi), %xmm0
	movl	$16777209, %ebx
	movl	$7, %r12d
	vmovss	%xmm0, 48(%rdi)
.L236:
	movl	$16777216, %r10d
	movl	%eax, %r8d
	movl	$16777208, %r11d
	subl	%eax, %r10d
	movl	$2097151, %ecx
.L235:
	salq	$2, %r8
	xorl	%eax, %eax
	xorl	%edx, %edx
	leaq	(%rsi,%r8), %r9
	leaq	24(%rdi,%r8), %r8
	.p2align 4,,10
	.p2align 3
.L237:
	vmovaps	(%r9,%rax), %ymm0
	addl	$1, %edx
	vmovups	%ymm0, (%r8,%rax)
	addq	$32, %rax
	cmpl	%ecx, %edx
	jb	.L237
	leal	(%r12,%r11), %eax
	subl	%r11d, %ebx
	cmpl	%r11d, %r10d
	je	.L232
	movslq	%eax, %rcx
	vmovss	(%rsi,%rcx,4), %xmm0
	vmovss	%xmm0, 24(%rdi,%rcx,4)
	leal	1(%rax), %ecx
	cmpl	$1, %ebx
	je	.L232
	movslq	%ecx, %rcx
	vmovss	(%rsi,%rcx,4), %xmm0
	vmovss	%xmm0, 24(%rdi,%rcx,4)
	leal	2(%rax), %ecx
	cmpl	$2, %ebx
	je	.L232
	movslq	%ecx, %rcx
	vmovss	(%rsi,%rcx,4), %xmm0
	vmovss	%xmm0, 24(%rdi,%rcx,4)
	leal	3(%rax), %ecx
	cmpl	$3, %ebx
	je	.L232
	movslq	%ecx, %rcx
	vmovss	(%rsi,%rcx,4), %xmm0
	vmovss	%xmm0, 24(%rdi,%rcx,4)
	leal	4(%rax), %ecx
	cmpl	$4, %ebx
	je	.L232
	movslq	%ecx, %rcx
	vmovss	(%rsi,%rcx,4), %xmm0
	vmovss	%xmm0, 24(%rdi,%rcx,4)
	leal	5(%rax), %ecx
	cmpl	$5, %ebx
	je	.L232
	movslq	%ecx, %rcx
	addl	$6, %eax
	vmovss	(%rsi,%rcx,4), %xmm0
	vmovss	%xmm0, 24(%rdi,%rcx,4)
	cmpl	$6, %ebx
	je	.L232
	cltq
	vmovss	(%rsi,%rax,4), %xmm0
	vmovss	%xmm0, 24(%rdi,%rax,4)
.L232:
	popq	%rbx
	popq	%r10
	.cfi_remember_state
	.cfi_def_cfa 10, 0
	popq	%r12
	popq	%rbp
	leaq	-8(%r10), %rsp
	.cfi_def_cfa 7, 8
	ret
	.p2align 4,,10
	.p2align 3
.L242:
	.cfi_restore_state
	xorl	%eax, %eax
	.p2align 4,,10
	.p2align 3
.L233:
	vmovss	(%rsi,%rax), %xmm0
	vmovss	%xmm0, (%rdx,%rax)
	addq	$4, %rax
	cmpq	$67108864, %rax
	jne	.L233
	popq	%rbx
	popq	%r10
	.cfi_remember_state
	.cfi_def_cfa 10, 0
	popq	%r12
	popq	%rbp
	leaq	-8(%r10), %rsp
	.cfi_def_cfa 7, 8
	ret
	.p2align 4,,10
	.p2align 3
.L243:
	.cfi_restore_state
	movl	$16777216, %r11d
	movl	$2097152, %ecx
	movl	$16777216, %r10d
	xorl	%r8d, %r8d
	movl	$16777216, %ebx
	xorl	%r12d, %r12d
	jmp	.L235
.L249:
	movl	$16777210, %ebx
	movl	$6, %r12d
	jmp	.L236
.L244:
	movl	$16777215, %ebx
	movl	$1, %r12d
	jmp	.L236
.L245:
	movl	$16777214, %ebx
	movl	$2, %r12d
	jmp	.L236
.L246:
	movl	$16777213, %ebx
	movl	$3, %r12d
	jmp	.L236
.L247:
	movl	$16777212, %ebx
	movl	$4, %r12d
	jmp	.L236
.L248:
	movl	$16777211, %ebx
	movl	$5, %r12d
	jmp	.L236
	.cfi_endproc
.LFE1398:
	.size	_ZN24WaveletCompressorGenericILi256EfE9copy_fromEPA256_A256_Kf, .-_ZN24WaveletCompressorGenericILi256EfE9copy_fromEPA256_A256_Kf
	.section	.text.unlikely._ZN24WaveletCompressorGenericILi256EfE9copy_fromEPA256_A256_Kf,"axG",@progbits,_ZN24WaveletCompressorGenericILi256EfE9copy_fromEPA256_A256_Kf,comdat
.LCOLDE14:
	.section	.text._ZN24WaveletCompressorGenericILi256EfE9copy_fromEPA256_A256_Kf,"axG",@progbits,_ZN24WaveletCompressorGenericILi256EfE9copy_fromEPA256_A256_Kf,comdat
.LHOTE14:
	.section	.text.unlikely._ZN18WaveletsOnInterval19FullTransformEngineILi32ELi32ELi32ELi32EE9thresholdIfLi32EEEifRSt6bitsetIXmlmlT0_T0_T0_EEPT_PA32_A32_Kf,"axG",@progbits,_ZN18WaveletsOnInterval19FullTransformEngineILi32ELi32ELi32ELi32EE9thresholdIfLi32EEEifRSt6bitsetIXmlmlT0_T0_T0_EEPT_PA32_A32_Kf,comdat
	.align 2
.LCOLDB16:
	.section	.text._ZN18WaveletsOnInterval19FullTransformEngineILi32ELi32ELi32ELi32EE9thresholdIfLi32EEEifRSt6bitsetIXmlmlT0_T0_T0_EEPT_PA32_A32_Kf,"axG",@progbits,_ZN18WaveletsOnInterval19FullTransformEngineILi32ELi32ELi32ELi32EE9thresholdIfLi32EEEifRSt6bitsetIXmlmlT0_T0_T0_EEPT_PA32_A32_Kf,comdat
.LHOTB16:
	.align 2
	.p2align 4,,15
	.weak	_ZN18WaveletsOnInterval19FullTransformEngineILi32ELi32ELi32ELi32EE9thresholdIfLi32EEEifRSt6bitsetIXmlmlT0_T0_T0_EEPT_PA32_A32_Kf
	.type	_ZN18WaveletsOnInterval19FullTransformEngineILi32ELi32ELi32ELi32EE9thresholdIfLi32EEEifRSt6bitsetIXmlmlT0_T0_T0_EEPT_PA32_A32_Kf, @function
_ZN18WaveletsOnInterval19FullTransformEngineILi32ELi32ELi32ELi32EE9thresholdIfLi32EEEifRSt6bitsetIXmlmlT0_T0_T0_EEPT_PA32_A32_Kf:
.LFB1442:
	.cfi_startproc
	pushq	%r15
	.cfi_def_cfa_offset 16
	.cfi_offset 15, -16
	xorl	%eax, %eax
	pushq	%r14
	.cfi_def_cfa_offset 24
	.cfi_offset 14, -24
	movq	%rdx, %r14
	movl	$1, %edx
	pushq	%r13
	.cfi_def_cfa_offset 32
	.cfi_offset 13, -32
	movq	%rsi, %r13
	pushq	%r12
	.cfi_def_cfa_offset 40
	.cfi_offset 12, -40
	pushq	%rbp
	.cfi_def_cfa_offset 48
	.cfi_offset 6, -48
	pushq	%rbx
	.cfi_def_cfa_offset 56
	.cfi_offset 3, -56
	movq	%rcx, -40(%rsp)
.L271:
	movq	%rax, %rsi
	movl	%eax, %ecx
	movq	%rdx, %rbx
	shrq	$6, %rsi
	salq	%cl, %rbx
	orq	%rbx, 0(%r13,%rsi,8)
	leaq	1(%rax), %rsi
	movq	%rdx, %rbx
	shrq	$6, %rsi
	leal	1(%rax), %ecx
	salq	%cl, %rbx
	orq	%rbx, 0(%r13,%rsi,8)
	leaq	2(%rax), %rsi
	movq	%rdx, %rbx
	shrq	$6, %rsi
	leal	2(%rax), %ecx
	salq	%cl, %rbx
	orq	%rbx, 0(%r13,%rsi,8)
	leaq	3(%rax), %rsi
	movq	%rdx, %rbx
	shrq	$6, %rsi
	leal	3(%rax), %ecx
	salq	%cl, %rbx
	orq	%rbx, 0(%r13,%rsi,8)
	leaq	32(%rax), %rsi
	movq	%rdx, %rbx
	shrq	$6, %rsi
	leal	32(%rax), %ecx
	salq	%cl, %rbx
	orq	%rbx, 0(%r13,%rsi,8)
	leaq	33(%rax), %rsi
	movq	%rdx, %rbx
	shrq	$6, %rsi
	leal	33(%rax), %ecx
	salq	%cl, %rbx
	orq	%rbx, 0(%r13,%rsi,8)
	leaq	34(%rax), %rsi
	movq	%rdx, %rbx
	shrq	$6, %rsi
	leal	34(%rax), %ecx
	salq	%cl, %rbx
	orq	%rbx, 0(%r13,%rsi,8)
	leaq	35(%rax), %rsi
	movq	%rdx, %rbx
	shrq	$6, %rsi
	leal	35(%rax), %ecx
	salq	%cl, %rbx
	movl	%eax, %ecx
	orq	%rbx, 0(%r13,%rsi,8)
	leaq	64(%rax), %rsi
	movq	%rdx, %rbx
	shrq	$6, %rsi
	salq	%cl, %rbx
	orq	%rbx, 0(%r13,%rsi,8)
	leaq	65(%rax), %rsi
	movq	%rdx, %rbx
	shrq	$6, %rsi
	leal	65(%rax), %ecx
	salq	%cl, %rbx
	orq	%rbx, 0(%r13,%rsi,8)
	leaq	66(%rax), %rsi
	movq	%rdx, %rbx
	shrq	$6, %rsi
	leal	66(%rax), %ecx
	salq	%cl, %rbx
	orq	%rbx, 0(%r13,%rsi,8)
	leaq	67(%rax), %rsi
	movq	%rdx, %rbx
	shrq	$6, %rsi
	leal	67(%rax), %ecx
	salq	%cl, %rbx
	orq	%rbx, 0(%r13,%rsi,8)
	leaq	96(%rax), %rsi
	movq	%rdx, %rbx
	shrq	$6, %rsi
	leal	96(%rax), %ecx
	salq	%cl, %rbx
	orq	%rbx, 0(%r13,%rsi,8)
	leaq	97(%rax), %rsi
	movq	%rdx, %rbx
	shrq	$6, %rsi
	leal	97(%rax), %ecx
	salq	%cl, %rbx
	orq	%rbx, 0(%r13,%rsi,8)
	leaq	98(%rax), %rsi
	movq	%rdx, %rbx
	shrq	$6, %rsi
	leal	98(%rax), %ecx
	salq	%cl, %rbx
	orq	%rbx, 0(%r13,%rsi,8)
	leaq	99(%rax), %rsi
	movq	%rdx, %rbx
	shrq	$6, %rsi
	leal	99(%rax), %ecx
	addq	$1024, %rax
	salq	%cl, %rbx
	orq	%rbx, 0(%r13,%rsi,8)
	cmpq	$4096, %rax
	jne	.L271
	movq	-40(%rsp), %rdx
	movq	%r14, %rax
	movl	$4, %ecx
.L272:
	vmovss	(%rdx), %xmm1
	addq	$64, %rax
	addq	$4096, %rdx
	vmovss	%xmm1, -64(%rax)
	vmovss	-4092(%rdx), %xmm1
	vmovss	%xmm1, -60(%rax)
	vmovss	-4088(%rdx), %xmm1
	vmovss	%xmm1, -56(%rax)
	vmovss	-4084(%rdx), %xmm1
	vmovss	%xmm1, -52(%rax)
	vmovss	-3968(%rdx), %xmm1
	vmovss	%xmm1, -48(%rax)
	vmovss	-3964(%rdx), %xmm1
	vmovss	%xmm1, -44(%rax)
	vmovss	-3960(%rdx), %xmm1
	vmovss	%xmm1, -40(%rax)
	vmovss	-3956(%rdx), %xmm1
	vmovss	%xmm1, -36(%rax)
	vmovss	-3840(%rdx), %xmm1
	vmovss	%xmm1, -32(%rax)
	vmovss	-3836(%rdx), %xmm1
	vmovss	%xmm1, -28(%rax)
	vmovss	-3832(%rdx), %xmm1
	vmovss	%xmm1, -24(%rax)
	vmovss	-3828(%rdx), %xmm1
	vmovss	%xmm1, -20(%rax)
	vmovss	-3712(%rdx), %xmm1
	vmovss	%xmm1, -16(%rax)
	vmovss	-3708(%rdx), %xmm1
	vmovss	%xmm1, -12(%rax)
	vmovss	-3704(%rdx), %xmm1
	vmovss	%xmm1, -8(%rax)
	vmovss	-3700(%rdx), %xmm1
	vmovss	%xmm1, -4(%rax)
	subl	$1, %ecx
	jne	.L272
	movl	$1, -8(%rsp)
	movl	-8(%rsp), %eax
	xorl	%r15d, %r15d
	vmovss	.LC15(%rip), %xmm3
	movl	$1, %r12d
.L286:
	leal	(%rax,%rax), %r11d
	movl	%eax, %esi
	sarl	$2, %eax
	leal	0(,%rax,4), %edx
	andl	$4, %r11d
	sall	$7, %eax
	andl	$1, %esi
	addl	%r11d, %eax
	movslq	%edx, %rdx
	sall	$2, %esi
	sall	$5, %eax
	movslq	%esi, %r9
	movslq	%eax, %rcx
	salq	$12, %rdx
	addq	-40(%rsp), %rdx
	leaq	(%rcx,%r9), %rbx
	leal	3(%rsi), %ecx
	movq	%rbx, -16(%rsp)
	leal	1(%rsi), %r10d
	movslq	%ecx, %rdi
	leal	(%rcx,%rax), %ebx
	movslq	%r10d, %r10
	movq	%rdi, -64(%rsp)
	subq	%r9, %rdi
	leal	4099(%rsi,%rax), %eax
	movq	%r10, %rcx
	movq	%rdi, -24(%rsp)
	movl	%eax, -4(%rsp)
	leal	2(%rsi), %eax
	subq	%r9, %rcx
	cltq
	movq	%rcx, -56(%rsp)
	movq	%rax, -48(%rsp)
	subq	%r9, %rax
	movq	%rax, -32(%rsp)
.L273:
	movq	-16(%rsp), %rcx
	movl	%ebx, %esi
	xorl	%r8d, %r8d
.L285:
	leal	(%r11,%r8), %eax
	movq	%rcx, %rbp
	cltq
	shrq	$6, %rbp
	movq	%rax, %rdi
	salq	$5, %rdi
	addq	%r9, %rdi
	vmovss	(%rdx,%rdi,4), %xmm1
	leal	-3(%rsi), %edi
	andl	$63, %edi
	vmovaps	%xmm1, %xmm2
	shlx	%rdi, %r12, %rdi
	vandps	%xmm3, %xmm2, %xmm2
	vucomiss	%xmm0, %xmm2
	ja	.L276
	notq	%rdi
	andq	%rdi, 0(%r13,%rbp,8)
.L277:
	movq	%rax, %rdi
	leal	-2(%rsi), %ebp
	salq	$5, %rdi
	addq	%r10, %rdi
	andl	$63, %ebp
	vmovss	(%rdx,%rdi,4), %xmm1
	shlx	%rbp, %r12, %rbp
	movq	-56(%rsp), %rdi
	vmovaps	%xmm1, %xmm2
	vandps	%xmm3, %xmm2, %xmm2
	addq	%rcx, %rdi
	shrq	$6, %rdi
	vucomiss	%xmm0, %xmm2
	ja	.L278
	notq	%rbp
	andq	%rbp, 0(%r13,%rdi,8)
.L279:
	movq	%rax, %rdi
	leal	-1(%rsi), %ebp
	salq	$5, %rdi
	addq	-48(%rsp), %rdi
	andl	$63, %ebp
	shlx	%rbp, %r12, %rbp
	vmovss	(%rdx,%rdi,4), %xmm1
	movq	-32(%rsp), %rdi
	vmovaps	%xmm1, %xmm2
	vandps	%xmm3, %xmm2, %xmm2
	addq	%rcx, %rdi
	shrq	$6, %rdi
	vucomiss	%xmm0, %xmm2
	ja	.L280
	notq	%rbp
	andq	%rbp, 0(%r13,%rdi,8)
.L281:
	salq	$5, %rax
	addq	-64(%rsp), %rax
	movl	%esi, %edi
	andl	$63, %edi
	vmovss	(%rdx,%rax,4), %xmm1
	movq	-24(%rsp), %rax
	vmovaps	%xmm1, %xmm2
	vandps	%xmm3, %xmm2, %xmm2
	addq	%rcx, %rax
	shrq	$6, %rax
	vucomiss	%xmm0, %xmm2
	ja	.L318
	shlx	%rdi, %r12, %rdi
	notq	%rdi
	andq	%rdi, 0(%r13,%rax,8)
.L274:
	addq	$1, %r8
	addq	$32, %rcx
	addl	$32, %esi
	cmpq	$4, %r8
	jne	.L285
	addq	$4096, %rdx
	addl	$1024, %ebx
	addq	$1024, -16(%rsp)
	cmpl	-4(%rsp), %ebx
	jne	.L273
	addl	$1, -8(%rsp)
	movl	-8(%rsp), %eax
	cmpl	$8, %eax
	jne	.L286
	leal	64(%r15), %eax
	movl	$1, %r12d
	xorl	%r15d, %r15d
	movl	$1, -56(%rsp)
	movl	%eax, -24(%rsp)
	cltq
	leaq	0(,%rax,4), %rbp
.L295:
	movl	-56(%rsp), %ebx
	movl	%ebx, %eax
	andl	$1, %eax
	sall	$3, %eax
	movl	%eax, %edi
	movl	%eax, -64(%rsp)
	movl	%ebx, %eax
	sall	$2, %eax
	andl	$8, %eax
	movl	%eax, %ecx
	movl	%eax, -32(%rsp)
	movl	%ebx, %eax
	sarl	$2, %eax
	leal	0(,%rax,8), %r9d
	sall	$8, %eax
	addl	%ecx, %eax
	movslq	%r9d, %r9
	movslq	%edi, %rcx
	leal	8(%rax), %edx
	salq	$12, %r9
	addq	-40(%rsp), %r9
	sall	$5, %edx
	movl	%edx, -8(%rsp)
	leal	8(%rcx), %r10d
	movl	%eax, %edx
	addl	$264, %eax
	sall	$5, %eax
	sall	$5, %edx
	movl	%eax, -16(%rsp)
	movl	-8(%rsp), %eax
	movslq	%edx, %rdx
	leaq	(%rdx,%rcx), %rdi
	movq	%rdi, -48(%rsp)
.L287:
	movl	-32(%rsp), %ebx
	leal	-256(%rax), %edi
	movq	-48(%rsp), %r11
	.p2align 4,,10
	.p2align 3
.L294:
	movslq	%ebx, %r8
	movl	-64(%rsp), %eax
	movq	%r11, %rcx
	salq	$5, %r8
	jmp	.L291
	.p2align 4,,10
	.p2align 3
.L315:
	addl	$1, %eax
	notq	%rdx
	addq	$1, %rcx
	andq	%rdx, 0(%r13,%rsi,8)
	cmpl	%r10d, %eax
	je	.L319
.L291:
	movslq	%eax, %rdx
	movq	%rcx, %rsi
	addq	%r8, %rdx
	shrq	$6, %rsi
	vmovss	(%r9,%rdx,4), %xmm1
	leal	(%rax,%rdi), %edx
	andl	$63, %edx
	vmovaps	%xmm1, %xmm2
	shlx	%rdx, %r12, %rdx
	vandps	%xmm3, %xmm2, %xmm2
	vucomiss	%xmm0, %xmm2
	jbe	.L315
	orq	%rdx, 0(%r13,%rsi,8)
	movslq	%r15d, %rdx
	addl	$1, %eax
	addl	$1, %r15d
	addq	$1, %rcx
	leaq	0(%rbp,%rdx,4), %rdx
	vmovss	%xmm1, (%r14,%rdx)
	cmpl	%r10d, %eax
	jne	.L291
.L319:
	addq	$32, %r11
	addl	$1, %ebx
	addl	$32, %edi
	cmpl	-8(%rsp), %edi
	jne	.L294
	leal	1024(%rdi), %eax
	addq	$4096, %r9
	addq	$1024, -48(%rsp)
	movl	%eax, -8(%rsp)
	cmpl	-16(%rsp), %eax
	jne	.L287
	addl	$1, -56(%rsp)
	movl	-56(%rsp), %eax
	cmpl	$8, %eax
	jne	.L295
	addl	-24(%rsp), %r15d
	xorl	%r9d, %r9d
	movl	$1, -48(%rsp)
	movl	$1, %r11d
	movslq	%r15d, %rax
	movl	%r15d, -16(%rsp)
	leaq	0(,%rax,4), %r15
.L304:
	movl	-48(%rsp), %ebx
	movl	%ebx, %eax
	andl	$1, %eax
	sall	$4, %eax
	movl	%eax, %edi
	movl	%eax, -64(%rsp)
	movl	%ebx, %eax
	sall	$3, %eax
	andl	$16, %eax
	movl	%eax, %ecx
	movl	%eax, -32(%rsp)
	movl	%ebx, %eax
	sarl	$2, %eax
	movl	%eax, %r10d
	sall	$9, %eax
	addl	%ecx, %eax
	sall	$4, %r10d
	movslq	%edi, %rcx
	leal	16(%rax), %edx
	movslq	%r10d, %r10
	sall	$5, %edx
	salq	$12, %r10
	addq	-40(%rsp), %r10
	movl	%edx, -8(%rsp)
	movl	%eax, %edx
	addl	$528, %eax
	sall	$5, %eax
	sall	$5, %edx
	movl	%eax, -24(%rsp)
	movl	-8(%rsp), %eax
	leal	16(%rcx), %ebx
	movslq	%edx, %rdx
	leaq	(%rdx,%rcx), %rdi
	movq	%rdi, -56(%rsp)
.L296:
	movl	-32(%rsp), %r12d
	leal	-512(%rax), %edi
	movq	-56(%rsp), %rbp
	.p2align 4,,10
	.p2align 3
.L303:
	movslq	%r12d, %r8
	movl	-64(%rsp), %eax
	movq	%rbp, %rcx
	salq	$5, %r8
	jmp	.L300
	.p2align 4,,10
	.p2align 3
.L316:
	addl	$1, %eax
	notq	%rsi
	addq	$1, %rcx
	andq	%rsi, 0(%r13,%rdx,8)
	cmpl	%ebx, %eax
	je	.L320
.L300:
	movslq	%eax, %rdx
	leal	(%rax,%rdi), %esi
	addq	%r8, %rdx
	vmovss	(%r10,%rdx,4), %xmm1
	movq	%rcx, %rdx
	andl	$63, %esi
	shrq	$6, %rdx
	shlx	%rsi, %r11, %rsi
	vmovaps	%xmm1, %xmm2
	vandps	%xmm3, %xmm2, %xmm2
	vucomiss	%xmm0, %xmm2
	jbe	.L316
	orq	%rsi, 0(%r13,%rdx,8)
	movslq	%r9d, %rdx
	addl	$1, %eax
	addl	$1, %r9d
	addq	$1, %rcx
	leaq	(%r15,%rdx,4), %rdx
	vmovss	%xmm1, (%r14,%rdx)
	cmpl	%ebx, %eax
	jne	.L300
.L320:
	addq	$32, %rbp
	addl	$1, %r12d
	addl	$32, %edi
	cmpl	-8(%rsp), %edi
	jne	.L303
	leal	1024(%rdi), %eax
	addq	$4096, %r10
	addq	$1024, -56(%rsp)
	movl	%eax, -8(%rsp)
	cmpl	-24(%rsp), %eax
	jne	.L296
	addl	$1, -48(%rsp)
	movl	-48(%rsp), %eax
	cmpl	$8, %eax
	jne	.L304
	movl	-16(%rsp), %eax
	popq	%rbx
	.cfi_remember_state
	.cfi_def_cfa_offset 48
	popq	%rbp
	.cfi_def_cfa_offset 40
	popq	%r12
	.cfi_def_cfa_offset 32
	addl	%r9d, %eax
	popq	%r13
	.cfi_def_cfa_offset 24
	popq	%r14
	.cfi_def_cfa_offset 16
	popq	%r15
	.cfi_def_cfa_offset 8
	ret
	.p2align 4,,10
	.p2align 3
.L318:
	.cfi_restore_state
	shlx	%rdi, %r12, %rdi
	orq	%rdi, 0(%r13,%rax,8)
	movslq	%r15d, %rax
	addl	$1, %r15d
	vmovss	%xmm1, 256(%r14,%rax,4)
	jmp	.L274
.L278:
	orq	%rbp, 0(%r13,%rdi,8)
	movslq	%r15d, %rdi
	addl	$1, %r15d
	vmovss	%xmm1, 256(%r14,%rdi,4)
	jmp	.L279
.L276:
	orq	%rdi, 0(%r13,%rbp,8)
	movslq	%r15d, %rdi
	addl	$1, %r15d
	vmovss	%xmm1, 256(%r14,%rdi,4)
	jmp	.L277
.L280:
	orq	%rbp, 0(%r13,%rdi,8)
	movslq	%r15d, %rdi
	addl	$1, %r15d
	vmovss	%xmm1, 256(%r14,%rdi,4)
	jmp	.L281
	.cfi_endproc
.LFE1442:
	.size	_ZN18WaveletsOnInterval19FullTransformEngineILi32ELi32ELi32ELi32EE9thresholdIfLi32EEEifRSt6bitsetIXmlmlT0_T0_T0_EEPT_PA32_A32_Kf, .-_ZN18WaveletsOnInterval19FullTransformEngineILi32ELi32ELi32ELi32EE9thresholdIfLi32EEEifRSt6bitsetIXmlmlT0_T0_T0_EEPT_PA32_A32_Kf
	.section	.text.unlikely._ZN18WaveletsOnInterval19FullTransformEngineILi32ELi32ELi32ELi32EE9thresholdIfLi32EEEifRSt6bitsetIXmlmlT0_T0_T0_EEPT_PA32_A32_Kf,"axG",@progbits,_ZN18WaveletsOnInterval19FullTransformEngineILi32ELi32ELi32ELi32EE9thresholdIfLi32EEEifRSt6bitsetIXmlmlT0_T0_T0_EEPT_PA32_A32_Kf,comdat
.LCOLDE16:
	.section	.text._ZN18WaveletsOnInterval19FullTransformEngineILi32ELi32ELi32ELi32EE9thresholdIfLi32EEEifRSt6bitsetIXmlmlT0_T0_T0_EEPT_PA32_A32_Kf,"axG",@progbits,_ZN18WaveletsOnInterval19FullTransformEngineILi32ELi32ELi32ELi32EE9thresholdIfLi32EEEifRSt6bitsetIXmlmlT0_T0_T0_EEPT_PA32_A32_Kf,comdat
.LHOTE16:
	.section	.text.unlikely._ZN18WaveletsOnInterval19FullTransformEngineILi256ELi256ELi256ELi256EE9thresholdIfLi256EEEifRSt6bitsetIXmlmlT0_T0_T0_EEPT_PA256_A256_Kf,"axG",@progbits,_ZN18WaveletsOnInterval19FullTransformEngineILi256ELi256ELi256ELi256EE9thresholdIfLi256EEEifRSt6bitsetIXmlmlT0_T0_T0_EEPT_PA256_A256_Kf,comdat
	.align 2
.LCOLDB17:
	.section	.text._ZN18WaveletsOnInterval19FullTransformEngineILi256ELi256ELi256ELi256EE9thresholdIfLi256EEEifRSt6bitsetIXmlmlT0_T0_T0_EEPT_PA256_A256_Kf,"axG",@progbits,_ZN18WaveletsOnInterval19FullTransformEngineILi256ELi256ELi256ELi256EE9thresholdIfLi256EEEifRSt6bitsetIXmlmlT0_T0_T0_EEPT_PA256_A256_Kf,comdat
.LHOTB17:
	.align 2
	.p2align 4,,15
	.weak	_ZN18WaveletsOnInterval19FullTransformEngineILi256ELi256ELi256ELi256EE9thresholdIfLi256EEEifRSt6bitsetIXmlmlT0_T0_T0_EEPT_PA256_A256_Kf
	.type	_ZN18WaveletsOnInterval19FullTransformEngineILi256ELi256ELi256ELi256EE9thresholdIfLi256EEEifRSt6bitsetIXmlmlT0_T0_T0_EEPT_PA256_A256_Kf, @function
_ZN18WaveletsOnInterval19FullTransformEngineILi256ELi256ELi256ELi256EE9thresholdIfLi256EEEifRSt6bitsetIXmlmlT0_T0_T0_EEPT_PA256_A256_Kf:
.LFB1475:
	.cfi_startproc
	pushq	%r15
	.cfi_def_cfa_offset 16
	.cfi_offset 15, -16
	xorl	%eax, %eax
	movq	%rsi, %r15
	pushq	%r14
	.cfi_def_cfa_offset 24
	.cfi_offset 14, -24
	pushq	%r13
	.cfi_def_cfa_offset 32
	.cfi_offset 13, -32
	movq	%rdx, %r13
	pushq	%r12
	.cfi_def_cfa_offset 40
	.cfi_offset 12, -40
	pushq	%rbp
	.cfi_def_cfa_offset 48
	.cfi_offset 6, -48
	pushq	%rbx
	.cfi_def_cfa_offset 56
	.cfi_offset 3, -56
	movq	%rcx, -56(%rsp)
.L322:
	movq	%rax, %rdx
	shrq	$6, %rdx
	orq	$1, (%r15,%rdx,8)
	leaq	1(%rax), %rdx
	shrq	$6, %rdx
	orq	$2, (%r15,%rdx,8)
	leaq	2(%rax), %rdx
	shrq	$6, %rdx
	orq	$4, (%r15,%rdx,8)
	leaq	3(%rax), %rdx
	shrq	$6, %rdx
	orq	$8, (%r15,%rdx,8)
	leaq	256(%rax), %rdx
	shrq	$6, %rdx
	orq	$1, (%r15,%rdx,8)
	leaq	257(%rax), %rdx
	shrq	$6, %rdx
	orq	$2, (%r15,%rdx,8)
	leaq	258(%rax), %rdx
	shrq	$6, %rdx
	orq	$4, (%r15,%rdx,8)
	leaq	259(%rax), %rdx
	shrq	$6, %rdx
	orq	$8, (%r15,%rdx,8)
	leaq	512(%rax), %rdx
	shrq	$6, %rdx
	orq	$1, (%r15,%rdx,8)
	leaq	513(%rax), %rdx
	shrq	$6, %rdx
	orq	$2, (%r15,%rdx,8)
	leaq	514(%rax), %rdx
	shrq	$6, %rdx
	orq	$4, (%r15,%rdx,8)
	leaq	515(%rax), %rdx
	shrq	$6, %rdx
	orq	$8, (%r15,%rdx,8)
	leaq	768(%rax), %rdx
	shrq	$6, %rdx
	orq	$1, (%r15,%rdx,8)
	leaq	769(%rax), %rdx
	shrq	$6, %rdx
	orq	$2, (%r15,%rdx,8)
	leaq	770(%rax), %rdx
	shrq	$6, %rdx
	orq	$4, (%r15,%rdx,8)
	leaq	771(%rax), %rdx
	addq	$65536, %rax
	shrq	$6, %rdx
	orq	$8, (%r15,%rdx,8)
	cmpq	$262144, %rax
	jne	.L322
	movq	-56(%rsp), %rdx
	movq	%r13, %rax
	movl	$4, %ecx
.L323:
	vmovss	(%rdx), %xmm1
	addq	$64, %rax
	addq	$262144, %rdx
	vmovss	%xmm1, -64(%rax)
	vmovss	-262140(%rdx), %xmm1
	vmovss	%xmm1, -60(%rax)
	vmovss	-262136(%rdx), %xmm1
	vmovss	%xmm1, -56(%rax)
	vmovss	-262132(%rdx), %xmm1
	vmovss	%xmm1, -52(%rax)
	vmovss	-261120(%rdx), %xmm1
	vmovss	%xmm1, -48(%rax)
	vmovss	-261116(%rdx), %xmm1
	vmovss	%xmm1, -44(%rax)
	vmovss	-261112(%rdx), %xmm1
	vmovss	%xmm1, -40(%rax)
	vmovss	-261108(%rdx), %xmm1
	vmovss	%xmm1, -36(%rax)
	vmovss	-260096(%rdx), %xmm1
	vmovss	%xmm1, -32(%rax)
	vmovss	-260092(%rdx), %xmm1
	vmovss	%xmm1, -28(%rax)
	vmovss	-260088(%rdx), %xmm1
	vmovss	%xmm1, -24(%rax)
	vmovss	-260084(%rdx), %xmm1
	vmovss	%xmm1, -20(%rax)
	vmovss	-259072(%rdx), %xmm1
	vmovss	%xmm1, -16(%rax)
	vmovss	-259068(%rdx), %xmm1
	vmovss	%xmm1, -12(%rax)
	vmovss	-259064(%rdx), %xmm1
	vmovss	%xmm1, -8(%rax)
	vmovss	-259060(%rdx), %xmm1
	vmovss	%xmm1, -4(%rax)
	subl	$1, %ecx
	jne	.L323
	xorl	%ebp, %ebp
	movl	$1, %ebx
	vmovss	.LC15(%rip), %xmm3
	movl	$1, %r11d
.L337:
	leal	(%rbx,%rbx), %eax
	movl	%ebx, %edx
	movl	%ebx, %edi
	andl	$4, %eax
	sarl	$2, %edx
	andl	$1, %edi
	movl	%eax, %ecx
	movl	%eax, -72(%rsp)
	sall	$2, %edi
	leal	0(,%rdx,4), %eax
	sall	$10, %edx
	movslq	%edi, %r8
	addl	%ecx, %edx
	cltq
	sall	$8, %edx
	salq	$18, %rax
	addq	-56(%rsp), %rax
	movslq	%edx, %r9
	leal	262147(%rdi,%rdx), %esi
	addq	%r8, %r9
	leal	3(%rdi), %ecx
	movl	%esi, -64(%rsp)
	leal	1(%rdi), %esi
	leal	(%rcx,%rdx), %r10d
	leal	2(%rdi), %edx
	movslq	%ecx, %rdi
	movslq	%esi, %rcx
	movq	%rcx, -40(%rsp)
	subq	%r8, %rcx
	movq	%rcx, -32(%rsp)
	movslq	%edx, %rcx
	movq	%rdi, -48(%rsp)
	subq	%r8, %rdi
	movq	%rcx, -24(%rsp)
	subq	%r8, %rcx
	movq	%rcx, -16(%rsp)
	movq	%rdi, -8(%rsp)
.L324:
	movl	%r10d, %esi
	movq	%r9, %rcx
	xorl	%edi, %edi
.L336:
	movl	-72(%rsp), %edx
	leal	-3(%rsi), %r14d
	andl	$63, %r14d
	shlx	%r14, %r11, %r14
	addl	%edi, %edx
	movslq	%edx, %rdx
	movq	%rdx, %r12
	salq	$8, %r12
	addq	%r8, %r12
	vmovss	(%rax,%r12,4), %xmm1
	movq	%rcx, %r12
	shrq	$6, %r12
	vmovaps	%xmm1, %xmm2
	vandps	%xmm3, %xmm2, %xmm2
	vucomiss	%xmm0, %xmm2
	ja	.L327
	notq	%r14
	andq	%r14, (%r15,%r12,8)
.L328:
	movq	%rdx, %r12
	movq	-32(%rsp), %r14
	salq	$8, %r12
	addq	-40(%rsp), %r12
	vmovss	(%rax,%r12,4), %xmm1
	leaq	(%r14,%rcx), %r12
	leal	-2(%rsi), %r14d
	shrq	$6, %r12
	vmovaps	%xmm1, %xmm2
	andl	$63, %r14d
	vandps	%xmm3, %xmm2, %xmm2
	vucomiss	%xmm0, %xmm2
	shlx	%r14, %r11, %r14
	ja	.L329
	notq	%r14
	andq	%r14, (%r15,%r12,8)
.L330:
	movq	%rdx, %r12
	movq	-16(%rsp), %r14
	salq	$8, %r12
	addq	-24(%rsp), %r12
	vmovss	(%rax,%r12,4), %xmm1
	leaq	(%r14,%rcx), %r12
	leal	-1(%rsi), %r14d
	shrq	$6, %r12
	vmovaps	%xmm1, %xmm2
	andl	$63, %r14d
	vandps	%xmm3, %xmm2, %xmm2
	vucomiss	%xmm0, %xmm2
	shlx	%r14, %r11, %r14
	ja	.L331
	notq	%r14
	andq	%r14, (%r15,%r12,8)
.L332:
	salq	$8, %rdx
	addq	-48(%rsp), %rdx
	movl	%esi, %r12d
	andl	$63, %r12d
	vmovss	(%rax,%rdx,4), %xmm1
	movq	-8(%rsp), %rdx
	vmovaps	%xmm1, %xmm2
	vandps	%xmm3, %xmm2, %xmm2
	addq	%rcx, %rdx
	shrq	$6, %rdx
	vucomiss	%xmm0, %xmm2
	ja	.L408
	shlx	%r12, %r11, %r12
	notq	%r12
	andq	%r12, (%r15,%rdx,8)
.L325:
	addq	$1, %rdi
	addq	$256, %rcx
	addl	$256, %esi
	cmpq	$4, %rdi
	jne	.L336
	addq	$262144, %rax
	addq	$65536, %r9
	addl	$65536, %r10d
	cmpl	-64(%rsp), %r10d
	jne	.L324
	addl	$1, %ebx
	cmpl	$8, %ebx
	jne	.L337
	leal	64(%rbp), %eax
	xorl	%r14d, %r14d
	movb	$1, %bl
	movl	%eax, -40(%rsp)
	cltq
	salq	$2, %rax
	movq	%rax, -64(%rsp)
.L346:
	leal	0(,%rbx,4), %eax
	movl	%ebx, %edx
	movl	%ebx, %ecx
	andl	$8, %eax
	sarl	$2, %edx
	andl	$1, %ecx
	movl	%eax, %edi
	movl	%eax, -48(%rsp)
	sall	$3, %ecx
	leal	0(,%rdx,8), %eax
	sall	$11, %edx
	movslq	%ecx, %r8
	leal	(%rdx,%rdi), %esi
	cltq
	leal	8(%rsi), %edx
	movl	%esi, %edi
	salq	$18, %rax
	addq	-56(%rsp), %rax
	sall	$8, %edi
	addl	$2056, %esi
	sall	$8, %esi
	movslq	%edi, %rdi
	sall	$8, %edx
	leaq	(%rdi,%r8), %r10
	movl	%esi, -32(%rsp)
	leal	8(%rcx), %edi
	movl	%edi, -24(%rsp)
.L338:
	movl	-48(%rsp), %r11d
	leal	-2048(%rdx), %esi
	movq	%r10, -72(%rsp)
.L345:
	movq	-72(%rsp), %r12
	movslq	%r11d, %rbp
	movl	%ecx, %edi
	movl	%edx, -16(%rsp)
	salq	$8, %rbp
.L342:
	leal	(%rdi,%rsi), %r9d
	movslq	%edi, %r8
	movl	$1, %edx
	addq	%rbp, %r8
	andl	$63, %r9d
	vmovss	(%rax,%r8,4), %xmm1
	movq	%r12, %r8
	shlx	%r9, %rdx, %r9
	shrq	$6, %r8
	vmovaps	%xmm1, %xmm2
	vandps	%xmm3, %xmm2, %xmm2
	vucomiss	%xmm0, %xmm2
	ja	.L409
	notq	%r9
	andq	%r9, (%r15,%r8,8)
.L341:
	addl	$1, %edi
	addq	$1, %r12
	cmpl	-24(%rsp), %edi
	jne	.L342
	movl	-16(%rsp), %edx
	addl	$256, %esi
	addl	$1, %r11d
	addq	$256, -72(%rsp)
	cmpl	%edx, %esi
	jne	.L345
	leal	65536(%rsi), %edx
	addq	$262144, %rax
	addq	$65536, %r10
	cmpl	-32(%rsp), %edx
	jne	.L338
	addl	$1, %ebx
	cmpl	$8, %ebx
	jne	.L346
	addl	-40(%rsp), %r14d
	movl	$0, -72(%rsp)
	movslq	%r14d, %rax
	movl	%r14d, -32(%rsp)
	movl	$1, %r14d
	salq	$2, %rax
	movq	%rax, -48(%rsp)
.L355:
	leal	0(,%r14,8), %eax
	movl	%r14d, %r11d
	andl	$16, %eax
	andl	$1, %r11d
	movl	%eax, %edi
	movl	%eax, -40(%rsp)
	movl	%r14d, %eax
	sall	$4, %r11d
	leal	16(%r11), %ebx
	sarl	$2, %eax
	movslq	%r11d, %rsi
	movl	%eax, %ecx
	sall	$12, %eax
	sall	$4, %ecx
	addl	%edi, %eax
	leal	16(%rax), %r9d
	movslq	%ecx, %rcx
	movl	%eax, %edx
	salq	$18, %rcx
	addq	-56(%rsp), %rcx
	sall	$8, %edx
	addl	$4112, %eax
	movslq	%edx, %rdx
	sall	$8, %eax
	leaq	(%rdx,%rsi), %rbp
	sall	$8, %r9d
	movl	%eax, -24(%rsp)
.L347:
	movl	-40(%rsp), %r12d
	leal	-4096(%r9), %r8d
	movq	%rbp, -64(%rsp)
.L354:
	movslq	%r12d, %r10
	movl	%r11d, %eax
	movq	-64(%rsp), %rsi
	movl	%r9d, -16(%rsp)
	salq	$8, %r10
	jmp	.L351
.L403:
	addl	$1, %eax
	notq	%rdx
	addq	$1, %rsi
	andq	%rdx, (%r15,%rdi,8)
	cmpl	%ebx, %eax
	je	.L410
.L351:
	movslq	%eax, %rdx
	movq	%rsi, %rdi
	addq	%r10, %rdx
	shrq	$6, %rdi
	movl	$1, %r9d
	vmovss	(%rcx,%rdx,4), %xmm1
	leal	(%rax,%r8), %edx
	andl	$63, %edx
	vmovaps	%xmm1, %xmm2
	shlx	%rdx, %r9, %rdx
	vandps	%xmm3, %xmm2, %xmm2
	vucomiss	%xmm0, %xmm2
	jbe	.L403
	orq	%rdx, (%r15,%rdi,8)
	addl	$1, %eax
	addq	$1, %rsi
	movslq	-72(%rsp), %rdx
	movq	-48(%rsp), %r9
	movq	%rdx, %rdi
	leaq	(%r9,%rdx,4), %rdx
	addl	$1, %edi
	vmovss	%xmm1, 0(%r13,%rdx)
	movl	%edi, -72(%rsp)
	cmpl	%ebx, %eax
	jne	.L351
.L410:
	movl	-16(%rsp), %r9d
	addl	$256, %r8d
	addl	$1, %r12d
	addq	$256, -64(%rsp)
	cmpl	%r9d, %r8d
	jne	.L354
	leal	65536(%r8), %r9d
	addq	$262144, %rcx
	addq	$65536, %rbp
	cmpl	-24(%rsp), %r9d
	jne	.L347
	addl	$1, %r14d
	cmpl	$8, %r14d
	jne	.L355
	movl	-32(%rsp), %eax
	xorb	%r14b, %r14b
	movl	$1, %r12d
	addl	-72(%rsp), %eax
	movl	$1, -72(%rsp)
	movl	%eax, -24(%rsp)
	cltq
	leaq	0(,%rax,4), %rbx
.L364:
	movl	-72(%rsp), %edi
	movl	%edi, %eax
	andl	$1, %eax
	sall	$5, %eax
	movl	%eax, %r11d
	movl	%eax, -40(%rsp)
	movl	%edi, %eax
	leal	32(%r11), %r10d
	sall	$4, %eax
	movslq	%r11d, %rcx
	andl	$32, %eax
	movl	%eax, %esi
	movl	%eax, -32(%rsp)
	movl	%edi, %eax
	sarl	$2, %eax
	movl	%eax, %edx
	sall	$13, %eax
	sall	$5, %edx
	addl	%esi, %eax
	movslq	%edx, %rdi
	sall	$8, %eax
	salq	$18, %rdi
	addq	-56(%rsp), %rdi
	movslq	%eax, %rsi
	movl	%eax, -48(%rsp)
	leaq	2105344(%rsi,%rcx), %rax
	leaq	8192(%rsi,%rcx), %rbp
	movq	%rax, -16(%rsp)
.L356:
	movl	-32(%rsp), %eax
	leaq	-8192(%rbp), %r11
	movl	-48(%rsp), %r8d
	movl	%eax, -64(%rsp)
.L363:
	movslq	-64(%rsp), %r9
	movq	%r11, %rcx
	movl	-40(%rsp), %eax
	salq	$8, %r9
	jmp	.L360
	.p2align 4,,10
	.p2align 3
.L404:
	addl	$1, %eax
	notq	%rsi
	addq	$1, %rcx
	andq	%rsi, (%r15,%rdx,8)
	cmpl	%r10d, %eax
	je	.L411
.L360:
	movslq	%eax, %rdx
	leal	(%rax,%r8), %esi
	addq	%r9, %rdx
	vmovss	(%rdi,%rdx,4), %xmm1
	movq	%rcx, %rdx
	andl	$63, %esi
	shrq	$6, %rdx
	shlx	%rsi, %r12, %rsi
	vmovaps	%xmm1, %xmm2
	vandps	%xmm3, %xmm2, %xmm2
	vucomiss	%xmm0, %xmm2
	jbe	.L404
	orq	%rsi, (%r15,%rdx,8)
	movslq	%r14d, %rdx
	addl	$1, %eax
	addl	$1, %r14d
	addq	$1, %rcx
	leaq	(%rbx,%rdx,4), %rdx
	vmovss	%xmm1, 0(%r13,%rdx)
	cmpl	%r10d, %eax
	jne	.L360
.L411:
	addq	$256, %r11
	addl	$256, %r8d
	addl	$1, -64(%rsp)
	cmpq	%rbp, %r11
	jne	.L363
	leaq	65536(%r11), %rbp
	addq	$262144, %rdi
	addl	$65536, -48(%rsp)
	cmpq	-16(%rsp), %rbp
	jne	.L356
	addl	$1, -72(%rsp)
	movl	-72(%rsp), %eax
	cmpl	$8, %eax
	jne	.L364
	addl	-24(%rsp), %r14d
	xorl	%edi, %edi
	movl	$1, %ebx
	movl	$1, -48(%rsp)
	movslq	%r14d, %rax
	movl	%r14d, -24(%rsp)
	leaq	0(,%rax,4), %r14
.L373:
	movl	-48(%rsp), %ecx
	movl	%ecx, %eax
	andl	$1, %eax
	sall	$6, %eax
	movl	%eax, %r11d
	movl	%eax, -64(%rsp)
	movl	%ecx, %eax
	sall	$5, %eax
	movslq	%r11d, %rdx
	leal	64(%r11), %r11d
	andl	$64, %eax
	movl	%eax, %r10d
	movl	%eax, -32(%rsp)
	movl	%ecx, %eax
	sarl	$2, %eax
	movl	%eax, %ecx
	sall	$14, %eax
	sall	$6, %ecx
	addl	%r10d, %eax
	movslq	%ecx, %r9
	sall	$8, %eax
	salq	$18, %r9
	addq	-56(%rsp), %r9
	movslq	%eax, %rsi
	movl	%eax, -40(%rsp)
	leaq	16384(%rdx,%rsi), %r10
	leaq	4210688(%rdx,%rsi), %rax
	movq	%r10, -72(%rsp)
	movq	%rax, -16(%rsp)
	movq	%r10, %rax
.L365:
	movl	-32(%rsp), %r12d
	leaq	-16384(%rax), %rbp
	movl	-40(%rsp), %r10d
.L372:
	movslq	%r12d, %r8
	movl	-64(%rsp), %eax
	movq	%rbp, %rcx
	salq	$8, %r8
	jmp	.L369
	.p2align 4,,10
	.p2align 3
.L405:
	addl	$1, %eax
	notq	%rdx
	addq	$1, %rcx
	andq	%rdx, (%r15,%rsi,8)
	cmpl	%r11d, %eax
	je	.L412
.L369:
	movslq	%eax, %rdx
	movq	%rcx, %rsi
	addq	%r8, %rdx
	shrq	$6, %rsi
	vmovss	(%r9,%rdx,4), %xmm1
	leal	(%rax,%r10), %edx
	andl	$63, %edx
	vmovaps	%xmm1, %xmm2
	shlx	%rdx, %rbx, %rdx
	vandps	%xmm3, %xmm2, %xmm2
	vucomiss	%xmm0, %xmm2
	jbe	.L405
	orq	%rdx, (%r15,%rsi,8)
	movslq	%edi, %rdx
	addl	$1, %eax
	addl	$1, %edi
	addq	$1, %rcx
	leaq	(%r14,%rdx,4), %rdx
	vmovss	%xmm1, 0(%r13,%rdx)
	cmpl	%r11d, %eax
	jne	.L369
.L412:
	addq	$256, %rbp
	addl	$1, %r12d
	addl	$256, %r10d
	cmpq	-72(%rsp), %rbp
	jne	.L372
	leaq	65536(%rbp), %rax
	addq	$262144, %r9
	addl	$65536, -40(%rsp)
	movq	%rax, -72(%rsp)
	cmpq	-16(%rsp), %rax
	jne	.L365
	addl	$1, -48(%rsp)
	movl	-48(%rsp), %eax
	cmpl	$8, %eax
	jne	.L373
	addl	-24(%rsp), %edi
	movl	$1, -48(%rsp)
	movl	$1, %ebx
	movslq	%edi, %rbp
	movl	%edi, -24(%rsp)
	xorl	%edi, %edi
	salq	$2, %rbp
.L382:
	movl	-48(%rsp), %ecx
	movl	%ecx, %eax
	andl	$1, %eax
	sall	$7, %eax
	movl	%eax, %r14d
	movl	%eax, -64(%rsp)
	movl	%ecx, %eax
	sall	$6, %eax
	movslq	%r14d, %rdx
	andl	$128, %eax
	movl	%eax, %r11d
	movl	%eax, -32(%rsp)
	movl	%ecx, %eax
	sarl	$2, %eax
	movl	%eax, %ecx
	sall	$15, %eax
	addl	%r11d, %eax
	sall	$7, %ecx
	sall	$8, %eax
	movslq	%ecx, %r10
	movslq	%eax, %rsi
	movl	%eax, -40(%rsp)
	salq	$18, %r10
	addq	-56(%rsp), %r10
	leaq	32768(%rsi,%rdx), %r11
	leaq	8421376(%rsi,%rdx), %rax
	movq	%r11, -72(%rsp)
	movq	%rax, -16(%rsp)
	movq	-72(%rsp), %rax
	leal	128(%r14), %r11d
.L374:
	movl	-32(%rsp), %r14d
	leaq	-32768(%rax), %r12
	movl	-40(%rsp), %r9d
	.p2align 4,,10
	.p2align 3
.L381:
	movslq	%r14d, %r8
	movl	-64(%rsp), %eax
	movq	%r12, %rcx
	salq	$8, %r8
	jmp	.L378
	.p2align 4,,10
	.p2align 3
.L406:
	addl	$1, %eax
	notq	%rdx
	addq	$1, %rcx
	andq	%rdx, (%r15,%rsi,8)
	cmpl	%r11d, %eax
	je	.L413
.L378:
	movslq	%eax, %rdx
	movq	%rcx, %rsi
	addq	%r8, %rdx
	shrq	$6, %rsi
	vmovss	(%r10,%rdx,4), %xmm1
	leal	(%rax,%r9), %edx
	andl	$63, %edx
	vmovaps	%xmm1, %xmm2
	shlx	%rdx, %rbx, %rdx
	vandps	%xmm3, %xmm2, %xmm2
	vucomiss	%xmm0, %xmm2
	jbe	.L406
	orq	%rdx, (%r15,%rsi,8)
	movslq	%edi, %rdx
	addl	$1, %eax
	addl	$1, %edi
	addq	$1, %rcx
	leaq	0(%rbp,%rdx,4), %rdx
	vmovss	%xmm1, 0(%r13,%rdx)
	cmpl	%r11d, %eax
	jne	.L378
.L413:
	addq	$256, %r12
	addl	$1, %r14d
	addl	$256, %r9d
	cmpq	-72(%rsp), %r12
	jne	.L381
	leaq	65536(%r12), %rax
	addq	$262144, %r10
	addl	$65536, -40(%rsp)
	movq	%rax, -72(%rsp)
	cmpq	-16(%rsp), %rax
	jne	.L374
	addl	$1, -48(%rsp)
	movl	-48(%rsp), %eax
	cmpl	$8, %eax
	jne	.L382
	movl	-24(%rsp), %eax
	popq	%rbx
	.cfi_remember_state
	.cfi_def_cfa_offset 48
	popq	%rbp
	.cfi_def_cfa_offset 40
	popq	%r12
	.cfi_def_cfa_offset 32
	addl	%edi, %eax
	popq	%r13
	.cfi_def_cfa_offset 24
	popq	%r14
	.cfi_def_cfa_offset 16
	popq	%r15
	.cfi_def_cfa_offset 8
	ret
.L327:
	.cfi_restore_state
	orq	%r14, (%r15,%r12,8)
	movslq	%ebp, %r12
	addl	$1, %ebp
	vmovss	%xmm1, 256(%r13,%r12,4)
	jmp	.L328
.L408:
	shlx	%r12, %r11, %r12
	orq	%r12, (%r15,%rdx,8)
	movslq	%ebp, %rdx
	addl	$1, %ebp
	vmovss	%xmm1, 256(%r13,%rdx,4)
	jmp	.L325
.L331:
	orq	%r14, (%r15,%r12,8)
	movslq	%ebp, %r12
	addl	$1, %ebp
	vmovss	%xmm1, 256(%r13,%r12,4)
	jmp	.L332
.L329:
	orq	%r14, (%r15,%r12,8)
	movslq	%ebp, %r12
	addl	$1, %ebp
	vmovss	%xmm1, 256(%r13,%r12,4)
	jmp	.L330
	.p2align 4,,10
	.p2align 3
.L409:
	movq	-64(%rsp), %rdx
	orq	%r9, (%r15,%r8,8)
	movslq	%r14d, %r8
	addl	$1, %r14d
	leaq	(%rdx,%r8,4), %r8
	vmovss	%xmm1, 0(%r13,%r8)
	jmp	.L341
	.cfi_endproc
.LFE1475:
	.size	_ZN18WaveletsOnInterval19FullTransformEngineILi256ELi256ELi256ELi256EE9thresholdIfLi256EEEifRSt6bitsetIXmlmlT0_T0_T0_EEPT_PA256_A256_Kf, .-_ZN18WaveletsOnInterval19FullTransformEngineILi256ELi256ELi256ELi256EE9thresholdIfLi256EEEifRSt6bitsetIXmlmlT0_T0_T0_EEPT_PA256_A256_Kf
	.section	.text.unlikely._ZN18WaveletsOnInterval19FullTransformEngineILi256ELi256ELi256ELi256EE9thresholdIfLi256EEEifRSt6bitsetIXmlmlT0_T0_T0_EEPT_PA256_A256_Kf,"axG",@progbits,_ZN18WaveletsOnInterval19FullTransformEngineILi256ELi256ELi256ELi256EE9thresholdIfLi256EEEifRSt6bitsetIXmlmlT0_T0_T0_EEPT_PA256_A256_Kf,comdat
.LCOLDE17:
	.section	.text._ZN18WaveletsOnInterval19FullTransformEngineILi256ELi256ELi256ELi256EE9thresholdIfLi256EEEifRSt6bitsetIXmlmlT0_T0_T0_EEPT_PA256_A256_Kf,"axG",@progbits,_ZN18WaveletsOnInterval19FullTransformEngineILi256ELi256ELi256ELi256EE9thresholdIfLi256EEEifRSt6bitsetIXmlmlT0_T0_T0_EEPT_PA256_A256_Kf,comdat
.LHOTE17:
	.section	.text.unlikely._ZN18WaveletsOnInterval19FullTransformEngineILi256ELi256ELi256ELi256EE4loadIfEEvRSt6vectorIT_SaIS4_EESt6bitsetILm16777216EEPA256_A256_f,"axG",@progbits,_ZN18WaveletsOnInterval19FullTransformEngineILi256ELi256ELi256ELi256EE4loadIfEEvRSt6vectorIT_SaIS4_EESt6bitsetILm16777216EEPA256_A256_f,comdat
	.align 2
.LCOLDB19:
	.section	.text._ZN18WaveletsOnInterval19FullTransformEngineILi256ELi256ELi256ELi256EE4loadIfEEvRSt6vectorIT_SaIS4_EESt6bitsetILm16777216EEPA256_A256_f,"axG",@progbits,_ZN18WaveletsOnInterval19FullTransformEngineILi256ELi256ELi256ELi256EE4loadIfEEvRSt6vectorIT_SaIS4_EESt6bitsetILm16777216EEPA256_A256_f,comdat
.LHOTB19:
	.align 2
	.p2align 4,,15
	.weak	_ZN18WaveletsOnInterval19FullTransformEngineILi256ELi256ELi256ELi256EE4loadIfEEvRSt6vectorIT_SaIS4_EESt6bitsetILm16777216EEPA256_A256_f
	.type	_ZN18WaveletsOnInterval19FullTransformEngineILi256ELi256ELi256ELi256EE4loadIfEEvRSt6vectorIT_SaIS4_EESt6bitsetILm16777216EEPA256_A256_f, @function
_ZN18WaveletsOnInterval19FullTransformEngineILi256ELi256ELi256ELi256EE4loadIfEEvRSt6vectorIT_SaIS4_EESt6bitsetILm16777216EEPA256_A256_f:
.LFB1482:
	.cfi_startproc
	pushq	%r15
	.cfi_def_cfa_offset 16
	.cfi_offset 15, -16
	movl	$1, %r11d
	pushq	%r14
	.cfi_def_cfa_offset 24
	.cfi_offset 14, -24
	pushq	%r13
	.cfi_def_cfa_offset 32
	.cfi_offset 13, -32
	pushq	%r12
	.cfi_def_cfa_offset 40
	.cfi_offset 12, -40
	pushq	%rbp
	.cfi_def_cfa_offset 48
	.cfi_offset 6, -48
	movq	%rsi, %rbp
	pushq	%rbx
	.cfi_def_cfa_offset 56
	.cfi_offset 3, -56
	subq	$599288, %rsp
	.cfi_def_cfa_offset 599344
	movq	%rdx, (%rsp)
	movl	$7, 8(%rsp)
.L422:
	movl	8(%rsp), %ebx
	movl	$1, %r14d
	movl	%ebx, %esi
	movl	%ebx, %eax
	movl	%ebx, %ecx
	sarl	$2, %esi
	sall	$6, %eax
	andl	$1, %ecx
	movl	%esi, %edx
	andl	$128, %eax
	sall	$7, %ecx
	sall	$7, %edx
	movl	%eax, %edi
	subl	%ecx, %r14d
	leal	127(%rdx), %eax
	movslq	%edx, %r9
	leal	127(%rdi), %ebx
	sall	$8, %eax
	addq	$127, %r9
	leal	(%rax,%rdi), %r8d
	salq	$18, %r9
	addq	(%rsp), %r9
	movl	%ebx, 32(%rsp)
	sall	$8, %r8d
	leal	(%rax,%rbx), %edx
	leal	-257(%rcx,%r8), %r13d
	sall	$8, %edx
	movslq	%ecx, %r8
	movslq	%edx, %rdx
	leaq	127(%r8,%rdx), %rax
	movq	%rax, 16(%rsp)
	movl	%esi, %eax
	sall	$15, %eax
	addl	%edi, %eax
	sall	$8, %eax
	leal	-65793(%rcx,%rax), %eax
	movl	%eax, 24(%rsp)
.L415:
	movl	32(%rsp), %r12d
	leal	32768(%r13), %r8d
	movq	16(%rsp), %rbx
	.p2align 4,,10
	.p2align 3
.L421:
	leal	128(%r8), %ecx
	movslq	%r12d, %rsi
	movq	%rbx, %rdx
	leal	(%r14,%r8), %edi
	salq	$8, %rsi
	jmp	.L418
	.p2align 4,,10
	.p2align 3
.L537:
	movq	8(%rbp), %r15
	cltq
	subl	$1, %ecx
	subq	$1, %rdx
	leaq	(%rsi,%rax), %r10
	vmovss	-4(%r15), %xmm0
	leaq	-4(%r15), %rax
	vmovss	%xmm0, (%r9,%r10,4)
	movq	%rax, 8(%rbp)
	cmpl	%r8d, %ecx
	je	.L536
.L418:
	movq	%rdx, %r10
	movl	%ecx, %eax
	movq	%r11, %r15
	shrq	$6, %r10
	subl	%edi, %eax
	salq	%cl, %r15
	testq	%r15, 599344(%rsp,%r10,8)
	jne	.L537
	cltq
	subl	$1, %ecx
	addq	%rsi, %rax
	subq	$1, %rdx
	movl	$0x00000000, (%r9,%rax,4)
	cmpl	%r8d, %ecx
	jne	.L418
.L536:
	leal	-256(%rcx), %r8d
	subl	$1, %r12d
	subq	$256, %rbx
	cmpl	%r13d, %r8d
	jne	.L421
	leal	-65792(%rcx), %r13d
	subq	$262144, %r9
	subq	$65536, 16(%rsp)
	cmpl	24(%rsp), %r13d
	jne	.L415
	subl	$1, 8(%rsp)
	jne	.L422
	xorl	%esi, %esi
	movl	$262144, %edx
	xorl	%ebx, %ebx
	leaq	74992(%rsp), %rdi
	call	memset
	xorl	%r11d, %r11d
	movl	$1, %esi
.L423:
	movl	%r11d, %edi
	movl	%ebx, %r10d
	movq	%rbx, %r9
	leal	32768(%r11), %r12d
	movq	%r11, %r8
.L429:
	xorl	%eax, %eax
	jmp	.L426
	.p2align 4,,10
	.p2align 3
.L424:
	andn	74992(%rsp,%rdx,8), %rcx, %rcx
.L425:
	addq	$1, %rax
	movq	%rcx, 74992(%rsp,%rdx,8)
	cmpq	$128, %rax
	je	.L538
.L426:
	leal	(%rdi,%rax), %ecx
	movq	%rsi, %r14
	leaq	(%r9,%rax), %rdx
	salq	%cl, %r14
	leaq	(%r8,%rax), %rcx
	shrq	$6, %rdx
	leal	(%r10,%rax), %r13d
	shrq	$6, %rcx
	andl	$63, %r13d
	testq	%r14, 599344(%rsp,%rcx,8)
	shlx	%r13, %rsi, %rcx
	je	.L424
	orq	74992(%rsp,%rdx,8), %rcx
	jmp	.L425
.L538:
	addl	$256, %edi
	subl	$-128, %r10d
	addq	$256, %r8
	subq	$-128, %r9
	cmpl	%r12d, %edi
	jne	.L429
	addq	$65536, %r11
	addq	$16384, %rbx
	cmpq	$8388608, %r11
	jne	.L423
	leaq	74992(%rsp), %rsi
	movl	$262144, %edx
	leaq	337136(%rsp), %rdi
	call	memcpy
	movl	$7, 8(%rsp)
	movl	$1, %r11d
.L437:
	movl	8(%rsp), %ebx
	movl	$1, %r14d
	movl	%ebx, %esi
	movl	%ebx, %eax
	movl	%ebx, %ecx
	sarl	$2, %esi
	sall	$5, %eax
	andl	$1, %ecx
	movl	%esi, %edx
	andl	$64, %eax
	sall	$6, %ecx
	sall	$6, %edx
	movl	%eax, %edi
	subl	%ecx, %r14d
	leal	63(%rdx), %eax
	movslq	%edx, %r9
	leal	63(%rdi), %ebx
	sall	$7, %eax
	addq	$63, %r9
	leal	(%rax,%rdi), %r8d
	salq	$18, %r9
	addq	(%rsp), %r9
	movl	%ebx, 32(%rsp)
	sall	$7, %r8d
	leal	(%rax,%rbx), %edx
	leal	-129(%rcx,%r8), %r13d
	sall	$7, %edx
	movslq	%ecx, %r8
	movslq	%edx, %rdx
	leaq	63(%r8,%rdx), %rax
	movq	%rax, 16(%rsp)
	movl	%esi, %eax
	sall	$13, %eax
	addl	%edi, %eax
	sall	$7, %eax
	leal	-16513(%rcx,%rax), %eax
	movl	%eax, 24(%rsp)
.L430:
	movl	32(%rsp), %r12d
	leal	8192(%r13), %r8d
	movq	16(%rsp), %rbx
.L436:
	leal	64(%r8), %ecx
	movslq	%r12d, %rsi
	movq	%rbx, %rdx
	leal	(%r14,%r8), %edi
	salq	$8, %rsi
	jmp	.L433
	.p2align 4,,10
	.p2align 3
.L540:
	movq	8(%rbp), %r10
	cltq
	subl	$1, %ecx
	subq	$1, %rdx
	addq	%rsi, %rax
	vmovss	-4(%r10), %xmm0
	vmovss	%xmm0, (%r9,%rax,4)
	subq	$4, 8(%rbp)
	cmpl	%r8d, %ecx
	je	.L539
.L433:
	movq	%rdx, %r10
	movl	%ecx, %eax
	movq	%r11, %r15
	shrq	$6, %r10
	subl	%edi, %eax
	salq	%cl, %r15
	testq	%r15, 337136(%rsp,%r10,8)
	jne	.L540
	cltq
	subl	$1, %ecx
	addq	%rsi, %rax
	subq	$1, %rdx
	movl	$0x00000000, (%r9,%rax,4)
	cmpl	%r8d, %ecx
	jne	.L433
.L539:
	leal	-128(%rcx), %r8d
	subl	$1, %r12d
	addq	$-128, %rbx
	cmpl	%r13d, %r8d
	jne	.L436
	leal	-16512(%rcx), %r13d
	subq	$262144, %r9
	subq	$16384, 16(%rsp)
	cmpl	24(%rsp), %r13d
	jne	.L430
	subl	$1, 8(%rsp)
	jne	.L437
	leaq	9456(%rsp), %rdi
	movl	$32768, %edx
	xorl	%esi, %esi
	call	memset
	xorl	%r14d, %r14d
	xorl	%ebx, %ebx
	movl	$1, %edi
.L438:
	movl	%ebx, %r8d
	movl	%r14d, %r11d
	movq	%r14, %r10
	leal	8192(%rbx), %r12d
	movq	%rbx, %r9
.L444:
	xorl	%eax, %eax
	jmp	.L441
	.p2align 4,,10
	.p2align 3
.L439:
	andn	9456(%rsp,%rdx,8), %rcx, %rcx
.L440:
	addq	$1, %rax
	movq	%rcx, 9456(%rsp,%rdx,8)
	cmpq	$64, %rax
	je	.L541
.L441:
	leal	(%r8,%rax), %ecx
	movq	%rdi, %r13
	leaq	(%r10,%rax), %rdx
	salq	%cl, %r13
	leaq	(%r9,%rax), %rcx
	shrq	$6, %rdx
	leal	(%r11,%rax), %esi
	shrq	$6, %rcx
	andl	$63, %esi
	testq	%r13, 337136(%rsp,%rcx,8)
	shlx	%rsi, %rdi, %rcx
	je	.L439
	orq	9456(%rsp,%rdx,8), %rcx
	jmp	.L440
.L541:
	subl	$-128, %r8d
	addl	$64, %r11d
	subq	$-128, %r9
	addq	$64, %r10
	cmpl	%r8d, %r12d
	jne	.L444
	addq	$16384, %rbx
	addq	$4096, %r14
	cmpq	$1048576, %rbx
	jne	.L438
	movl	$32768, %edx
	movl	$7, %r12d
	movl	$1, %r15d
	leaq	9456(%rsp), %rsi
	leaq	42224(%rsp), %rdi
	call	memcpy
.L452:
	movl	%r12d, %esi
	movl	%r12d, %eax
	movl	%r12d, %ecx
	sarl	$2, %esi
	sall	$4, %eax
	andl	$1, %ecx
	movl	%esi, %edx
	andl	$32, %eax
	sall	$5, %ecx
	sall	$5, %edx
	movl	%eax, %r8d
	movslq	%ecx, %r9
	leal	31(%rdx), %eax
	leal	31(%r8), %ebx
	sall	$6, %eax
	leal	(%rax,%r8), %edi
	movl	%ebx, 24(%rsp)
	sall	$6, %edi
	leal	-65(%rcx,%rdi), %r11d
	movslq	%edx, %rdi
	leal	(%rax,%rbx), %edx
	movl	%esi, %eax
	addq	$31, %rdi
	sall	$11, %eax
	salq	$18, %rdi
	addq	(%rsp), %rdi
	addl	%r8d, %eax
	sall	$6, %edx
	sall	$6, %eax
	movslq	%edx, %rdx
	leal	-4161(%rcx,%rax), %eax
	movl	%eax, 16(%rsp)
	leaq	31(%r9,%rdx), %rbx
	movl	$1, %eax
	subl	%ecx, %eax
	movl	%eax, 32(%rsp)
.L445:
	movl	24(%rsp), %r13d
	leal	2048(%r11), %r8d
	movq	%rbx, 8(%rsp)
.L451:
	movl	32(%rsp), %eax
	leal	32(%r8), %ecx
	movslq	%r13d, %r9
	movq	8(%rsp), %rdx
	salq	$8, %r9
	leal	(%rax,%r8), %r10d
	jmp	.L448
	.p2align 4,,10
	.p2align 3
.L543:
	movq	8(%rbp), %rsi
	cltq
	subl	$1, %ecx
	subq	$1, %rdx
	addq	%r9, %rax
	vmovss	-4(%rsi), %xmm0
	vmovss	%xmm0, (%rdi,%rax,4)
	subq	$4, 8(%rbp)
	cmpl	%r8d, %ecx
	je	.L542
.L448:
	movq	%rdx, %rsi
	movl	%ecx, %eax
	movq	%r15, %r14
	shrq	$6, %rsi
	subl	%r10d, %eax
	salq	%cl, %r14
	testq	%r14, 42224(%rsp,%rsi,8)
	jne	.L543
	cltq
	subl	$1, %ecx
	addq	%r9, %rax
	subq	$1, %rdx
	movl	$0x00000000, (%rdi,%rax,4)
	cmpl	%r8d, %ecx
	jne	.L448
.L542:
	subq	$64, 8(%rsp)
	leal	-64(%rcx), %r8d
	subl	$1, %r13d
	cmpl	%r11d, %r8d
	jne	.L451
	leal	-4160(%rcx), %r11d
	subq	$262144, %rdi
	subq	$4096, %rbx
	cmpl	16(%rsp), %r11d
	jne	.L445
	subl	$1, %r12d
	jne	.L452
	leaq	1264(%rsp), %rdi
	movl	$4096, %edx
	xorl	%esi, %esi
	call	memset
	xorl	%r14d, %r14d
	xorl	%r9d, %r9d
	movl	$1, %edi
.L453:
	movl	%r9d, %r8d
	movl	%r14d, %ebx
	movq	%r14, %r11
	leal	2048(%r9), %r12d
	movq	%r9, %r10
.L459:
	xorl	%eax, %eax
	jmp	.L456
.L454:
	andn	1264(%rsp,%rdx,8), %rcx, %rcx
.L455:
	addq	$1, %rax
	movq	%rcx, 1264(%rsp,%rdx,8)
	cmpq	$32, %rax
	je	.L544
.L456:
	leal	(%r8,%rax), %ecx
	movq	%rdi, %r13
	leaq	(%r11,%rax), %rdx
	salq	%cl, %r13
	leaq	(%r10,%rax), %rcx
	shrq	$6, %rdx
	leal	(%rbx,%rax), %esi
	shrq	$6, %rcx
	andl	$63, %esi
	testq	%r13, 42224(%rsp,%rcx,8)
	shlx	%rsi, %rdi, %rcx
	je	.L454
	orq	1264(%rsp,%rdx,8), %rcx
	jmp	.L455
.L544:
	addl	$64, %r8d
	addl	$32, %ebx
	addq	$64, %r10
	addq	$32, %r11
	cmpl	%r8d, %r12d
	jne	.L459
	addq	$4096, %r9
	addq	$1024, %r14
	cmpq	$131072, %r9
	jne	.L453
	movl	$4096, %edx
	movl	$7, %r12d
	movl	$1, %r15d
	leaq	1264(%rsp), %rsi
	leaq	5360(%rsp), %rdi
	call	memcpy
.L467:
	leal	0(,%r12,8), %esi
	movl	%r12d, %edi
	movl	%r12d, %ecx
	sarl	$2, %edi
	andl	$16, %esi
	andl	$1, %ecx
	leal	15(%rsi), %ebx
	movl	%edi, %edx
	sall	$4, %ecx
	sall	$4, %edx
	movslq	%ecx, %r8
	sall	$9, %edi
	movl	%ebx, 16(%rsp)
	leal	15(%rdx), %eax
	movslq	%edx, %rdx
	sall	$5, %eax
	addq	$15, %rdx
	leal	134217727(%rsi,%rax), %r9d
	addl	%ebx, %eax
	salq	$18, %rdx
	addq	(%rsp), %rdx
	sall	$5, %eax
	cltq
	sall	$5, %r9d
	leaq	15(%r8,%rax), %rbx
	leal	134217695(%rsi,%rdi), %eax
	sall	$5, %eax
	movl	%eax, 24(%rsp)
	leal	15(%rcx), %eax
	movl	%eax, 40(%rsp)
	leal	-1(%rcx), %eax
	movl	%eax, 32(%rsp)
.L460:
	movl	16(%rsp), %r13d
	leal	512(%r9), %edi
	movq	%rbx, 8(%rsp)
.L466:
	movl	40(%rsp), %eax
	movslq	%r13d, %r10
	movq	8(%rsp), %rsi
	salq	$8, %r10
	leal	(%rax,%rdi), %ecx
	movl	32(%rsp), %eax
	leal	(%rax,%rdi), %r11d
	jmp	.L463
.L546:
	movq	8(%rbp), %r8
	cltq
	subl	$1, %ecx
	subq	$1, %rsi
	addq	%r10, %rax
	vmovss	-4(%r8), %xmm0
	vmovss	%xmm0, (%rdx,%rax,4)
	subq	$4, 8(%rbp)
	cmpl	%ecx, %r11d
	je	.L545
.L463:
	movq	%rsi, %r8
	movl	%ecx, %eax
	movq	%r15, %r14
	shrq	$6, %r8
	subl	%edi, %eax
	salq	%cl, %r14
	testq	%r14, 5360(%rsp,%r8,8)
	jne	.L546
	cltq
	subl	$1, %ecx
	addq	%r10, %rax
	subq	$1, %rsi
	movl	$0x00000000, (%rdx,%rax,4)
	cmpl	%ecx, %r11d
	jne	.L463
.L545:
	subq	$32, 8(%rsp)
	subl	$32, %edi
	subl	$1, %r13d
	cmpl	%r9d, %edi
	jne	.L466
	leal	-1024(%rdi), %r9d
	subq	$262144, %rdx
	subq	$1024, %rbx
	cmpl	24(%rsp), %r9d
	jne	.L460
	subl	$1, %r12d
	jne	.L467
	leaq	240(%rsp), %rsi
	movl	$64, %ecx
	xorl	%eax, %eax
	movq	%rsi, %rdi
	xorl	%r9d, %r9d
	xorl	%edx, %edx
	rep; stosq
	movl	$1, %edi
.L468:
	movl	%edx, %r10d
	movl	%r9d, %r12d
	movq	%r9, %rbx
	leal	512(%rdx), %r13d
	movq	%rdx, %r11
.L474:
	xorl	%eax, %eax
	jmp	.L471
	.p2align 4,,10
	.p2align 3
.L469:
	andn	240(%rsp,%r8,8), %rcx, %rcx
.L470:
	addq	$1, %rax
	movq	%rcx, 240(%rsp,%r8,8)
	cmpq	$16, %rax
	je	.L547
.L471:
	leal	(%r10,%rax), %ecx
	movq	%rdi, %r15
	leaq	(%rax,%rbx), %r8
	salq	%cl, %r15
	leaq	(%rax,%r11), %rcx
	shrq	$6, %r8
	leal	(%r12,%rax), %r14d
	shrq	$6, %rcx
	andl	$63, %r14d
	testq	%r15, 5360(%rsp,%rcx,8)
	shlx	%r14, %rdi, %rcx
	je	.L469
	orq	240(%rsp,%r8,8), %rcx
	jmp	.L470
.L547:
	addl	$32, %r10d
	addl	$16, %r12d
	addq	$32, %r11
	addq	$16, %rbx
	cmpl	%r10d, %r13d
	jne	.L474
	addq	$1024, %rdx
	addq	$256, %r9
	cmpq	$16384, %rdx
	jne	.L468
	movl	$512, %edx
	movl	$1, %r12d
	leaq	752(%rsp), %rdi
	call	memcpy
	movl	$7, 16(%rsp)
.L496:
	movl	16(%rsp), %eax
	leal	0(,%rax,4), %esi
	movl	%eax, %ecx
	movl	%eax, %r8d
	sarl	$2, %ecx
	andl	$8, %esi
	andl	$1, %r8d
	leal	0(,%rcx,8), %eax
	sall	$3, %r8d
	leal	7(%rsi), %ebx
	movslq	%eax, %rdx
	addl	$7, %eax
	sall	$4, %eax
	movslq	%r8d, %rdi
	movl	%ebx, 48(%rsp)
	addq	$7, %rdx
	leal	7(%r8), %r10d
	addl	%ebx, %eax
	salq	$18, %rdx
	addq	(%rsp), %rdx
	sall	$4, %eax
	leal	(%rax,%r10), %r14d
	cltq
	movslq	%r10d, %r10
	leal	6(%r8), %ebx
	addq	%rdi, %rax
	movq	%rax, 8(%rsp)
	leal	5(%r8), %r11d
	movl	%ecx, %eax
	movslq	%ebx, %rbx
	leal	3(%r8), %ecx
	sall	$7, %eax
	movslq	%r11d, %r11
	leal	2(%r8), %r9d
	addl	%esi, %eax
	subl	$1, %esi
	sall	$4, %eax
	movl	%esi, 104(%rsp)
	movq	%rbx, %rsi
	movslq	%r9d, %r15
	leal	-137(%r8,%rax), %eax
	subq	%rdi, %rsi
	movl	%eax, 40(%rsp)
	leal	4(%r8), %eax
	addl	$1, %r8d
	cltq
	movq	%rsi, 64(%rsp)
	movq	%r11, %rsi
	movq	%rax, 24(%rsp)
	subq	%rdi, %rax
	subq	%rdi, %rsi
	movq	%rax, 80(%rsp)
	movslq	%ecx, %rax
	movq	%rax, 32(%rsp)
	subq	%rdi, %rax
	movq	%rax, 88(%rsp)
	movq	%r15, %rax
	subq	%rdi, %rax
	movl	%r8d, 60(%rsp)
	movq	%rsi, 72(%rsp)
	movq	%rax, 96(%rsp)
.L475:
	movl	48(%rsp), %r13d
	movl	%r14d, %r8d
	movl	%r14d, 108(%rsp)
	movq	8(%rsp), %r9
	jmp	.L495
	.p2align 4,,10
	.p2align 3
.L549:
	movq	8(%rbp), %rax
	vmovss	-4(%rax), %xmm0
	movslq	%r13d, %rax
	movq	%rax, %rcx
	salq	$8, %rcx
	addq	%r10, %rcx
	vmovss	%xmm0, (%rdx,%rcx,4)
	subq	$4, 8(%rbp)
.L479:
	movq	%r12, %rsi
	leal	-1(%r8), %ecx
	salq	%cl, %rsi
	movq	64(%rsp), %rcx
	addq	%r9, %rcx
	shrq	$6, %rcx
	testq	%rsi, 752(%rsp,%rcx,8)
	je	.L480
	movq	8(%rbp), %rcx
	vmovss	-4(%rcx), %xmm0
	movq	%rax, %rcx
	salq	$8, %rcx
	addq	%rbx, %rcx
	vmovss	%xmm0, (%rdx,%rcx,4)
	subq	$4, 8(%rbp)
.L481:
	movq	%r12, %rsi
	leal	-2(%r8), %ecx
	salq	%cl, %rsi
	movq	72(%rsp), %rcx
	addq	%r9, %rcx
	shrq	$6, %rcx
	testq	%rsi, 752(%rsp,%rcx,8)
	je	.L482
	movq	8(%rbp), %rcx
	vmovss	-4(%rcx), %xmm0
	movq	%rax, %rcx
	salq	$8, %rcx
	addq	%r11, %rcx
	vmovss	%xmm0, (%rdx,%rcx,4)
	subq	$4, 8(%rbp)
.L483:
	movq	%r12, %rsi
	leal	-3(%r8), %ecx
	salq	%cl, %rsi
	movq	80(%rsp), %rcx
	addq	%r9, %rcx
	shrq	$6, %rcx
	testq	%rsi, 752(%rsp,%rcx,8)
	je	.L484
	movq	8(%rbp), %rcx
	vmovss	-4(%rcx), %xmm0
	movq	%rax, %rcx
	salq	$8, %rcx
	addq	24(%rsp), %rcx
	vmovss	%xmm0, (%rdx,%rcx,4)
	subq	$4, 8(%rbp)
.L485:
	movq	%r12, %rsi
	leal	-4(%r8), %ecx
	salq	%cl, %rsi
	movq	88(%rsp), %rcx
	addq	%r9, %rcx
	shrq	$6, %rcx
	testq	%rsi, 752(%rsp,%rcx,8)
	je	.L486
	movq	8(%rbp), %rcx
	vmovss	-4(%rcx), %xmm0
	movq	%rax, %rcx
	salq	$8, %rcx
	addq	32(%rsp), %rcx
	vmovss	%xmm0, (%rdx,%rcx,4)
	subq	$4, 8(%rbp)
.L487:
	movq	%r12, %rsi
	leal	-5(%r8), %ecx
	salq	%cl, %rsi
	movq	96(%rsp), %rcx
	addq	%r9, %rcx
	shrq	$6, %rcx
	testq	%rsi, 752(%rsp,%rcx,8)
	je	.L488
	movq	8(%rbp), %rcx
	vmovss	-4(%rcx), %xmm0
	movq	%rax, %rcx
	salq	$8, %rcx
	addq	%r15, %rcx
	vmovss	%xmm0, (%rdx,%rcx,4)
	subq	$4, 8(%rbp)
.L489:
	movq	%r12, %rsi
	leal	-6(%r8), %ecx
	salq	%cl, %rsi
	movslq	60(%rsp), %rcx
	movq	%rsi, %r14
	movq	%rcx, %rsi
	subq	%rdi, %rsi
	addq	%r9, %rsi
	shrq	$6, %rsi
	testq	%r14, 752(%rsp,%rsi,8)
	je	.L490
	movq	8(%rbp), %rsi
	vmovss	-4(%rsi), %xmm0
	movq	%rax, %rsi
	salq	$8, %rsi
	addq	%rsi, %rcx
	vmovss	%xmm0, (%rdx,%rcx,4)
	subq	$4, 8(%rbp)
.L491:
	movq	%r12, %rsi
	leal	-7(%r8), %ecx
	salq	%cl, %rsi
	movq	%r9, %rcx
	shrq	$6, %rcx
	testq	%rsi, 752(%rsp,%rcx,8)
	je	.L548
	movq	8(%rbp), %rcx
	salq	$8, %rax
	addq	%rdi, %rax
	vmovss	-4(%rcx), %xmm0
	vmovss	%xmm0, (%rdx,%rax,4)
	subq	$4, 8(%rbp)
.L476:
	subl	$16, %r8d
	subl	$1, %r13d
	subq	$16, %r9
	cmpl	104(%rsp), %r13d
	je	.L477
.L495:
	movq	%r10, %rax
	movq	%r12, %rsi
	subq	%rdi, %rax
	movl	%r8d, %ecx
	addq	%r9, %rax
	salq	%cl, %rsi
	shrq	$6, %rax
	testq	%rsi, 752(%rsp,%rax,8)
	jne	.L549
	movslq	%r13d, %rax
	movq	%rax, %rcx
	salq	$8, %rcx
	addq	%r10, %rcx
	movl	$0x00000000, (%rdx,%rcx,4)
	jmp	.L479
.L548:
	salq	$8, %rax
	addq	%rdi, %rax
	movl	$0x00000000, (%rdx,%rax,4)
	jmp	.L476
.L490:
	movq	%rax, %rsi
	salq	$8, %rsi
	addq	%rsi, %rcx
	movl	$0x00000000, (%rdx,%rcx,4)
	jmp	.L491
.L488:
	movq	%rax, %rcx
	salq	$8, %rcx
	addq	%r15, %rcx
	movl	$0x00000000, (%rdx,%rcx,4)
	jmp	.L489
.L486:
	movq	%rax, %rcx
	salq	$8, %rcx
	addq	32(%rsp), %rcx
	movl	$0x00000000, (%rdx,%rcx,4)
	jmp	.L487
.L484:
	movq	%rax, %rcx
	salq	$8, %rcx
	addq	24(%rsp), %rcx
	movl	$0x00000000, (%rdx,%rcx,4)
	jmp	.L485
.L482:
	movq	%rax, %rcx
	salq	$8, %rcx
	addq	%r11, %rcx
	movl	$0x00000000, (%rdx,%rcx,4)
	jmp	.L483
.L480:
	movq	%rax, %rcx
	salq	$8, %rcx
	addq	%rbx, %rcx
	movl	$0x00000000, (%rdx,%rcx,4)
	jmp	.L481
.L477:
	movl	108(%rsp), %r14d
	subq	$262144, %rdx
	subq	$256, 8(%rsp)
	subl	$256, %r14d
	cmpl	40(%rsp), %r14d
	jne	.L475
	subl	$1, 16(%rsp)
	jne	.L496
	leaq	112(%rsp), %rdx
	movl	$8, %ecx
	xorl	%eax, %eax
	movq	%rdx, %rdi
	movl	$1, %r9d
	xorl	%edx, %edx
	rep; stosq
	xorl	%edi, %edi
.L497:
	movl	%edx, %r8d
	movl	%edi, %ebx
	movq	%rdi, %r11
	leal	128(%rdx), %r12d
	movq	%rdx, %r10
.L503:
	xorl	%eax, %eax
	jmp	.L500
.L498:
	addq	$1, %rax
	andn	112(%rsp,%rsi,8), %rcx, %rcx
	movq	%rcx, 112(%rsp,%rsi,8)
	cmpq	$8, %rax
	je	.L550
.L500:
	leal	(%r8,%rax), %ecx
	movq	%r9, %r14
	leaq	(%rax,%r11), %rsi
	salq	%cl, %r14
	leaq	(%rax,%r10), %rcx
	shrq	$6, %rsi
	leal	(%rbx,%rax), %r13d
	shrq	$6, %rcx
	andl	$63, %r13d
	testq	%r14, 752(%rsp,%rcx,8)
	shlx	%r13, %r9, %rcx
	je	.L498
	orq	112(%rsp,%rsi,8), %rcx
	addq	$1, %rax
	movq	%rcx, 112(%rsp,%rsi,8)
	cmpq	$8, %rax
	jne	.L500
.L550:
	addl	$16, %r8d
	addl	$8, %ebx
	addq	$16, %r10
	addq	$8, %r11
	cmpl	%r8d, %r12d
	jne	.L503
	addq	$256, %rdx
	addq	$64, %rdi
	cmpq	$2048, %rdx
	jne	.L497
	movq	112(%rsp), %rax
	movl	$7, %r13d
	movl	$1, %r15d
	movq	%rax, 176(%rsp)
	movq	120(%rsp), %rax
	movq	%rax, 184(%rsp)
	movq	128(%rsp), %rax
	movq	%rax, 192(%rsp)
	movq	136(%rsp), %rax
	movq	%rax, 200(%rsp)
	movq	144(%rsp), %rax
	movq	%rax, 208(%rsp)
	movq	152(%rsp), %rax
	movq	%rax, 216(%rsp)
	movq	160(%rsp), %rax
	movq	%rax, 224(%rsp)
	movq	168(%rsp), %rax
	movq	%rax, 232(%rsp)
.L515:
	leal	(%r13,%r13), %ecx
	movl	%r13d, %eax
	andl	$4, %ecx
	andl	$1, %eax
	movl	%ecx, %r8d
	movl	%r13d, %ecx
	sall	$2, %eax
	leal	3(%r8), %edi
	sarl	$2, %ecx
	leal	0(,%rcx,4), %esi
	sall	$5, %ecx
	movl	%edi, 24(%rsp)
	leal	3(%rax), %ebx
	movslq	%esi, %rdx
	addl	%r8d, %ecx
	leal	24(%rdi,%rsi,8), %esi
	movslq	%ebx, %rbx
	movslq	%eax, %rdi
	leal	2(%rax), %r11d
	sall	$3, %esi
	addq	$3, %rdx
	leal	1(%rax), %r10d
	movslq	%esi, %r9
	addl	%eax, %esi
	leal	-40(%rax,%rcx,8), %eax
	movslq	%r11d, %r11
	salq	$18, %rdx
	addq	(%rsp), %rdx
	movl	%eax, 16(%rsp)
	movq	%rbx, %rax
	movslq	%r10d, %r10
	leaq	(%r9,%rdi), %r14
	subq	%rdi, %rax
	movq	%rax, 32(%rsp)
	movq	%r11, %rax
	subq	%rdi, %rax
	movq	%r14, 8(%rsp)
	movq	%rax, 40(%rsp)
	movq	%r10, %rax
	subq	%rdi, %rax
	movq	%rax, 48(%rsp)
.L504:
	movq	8(%rsp), %r8
	movl	%esi, %r9d
	xorl	%r12d, %r12d
.L513:
	leal	3(%r9), %ecx
	movq	%r15, %r14
	movl	24(%rsp), %eax
	salq	%cl, %r14
	movq	32(%rsp), %rcx
	subl	%r12d, %eax
	addq	%r8, %rcx
	shrq	$6, %rcx
	testq	%r14, 176(%rsp,%rcx,8)
	je	.L505
	movq	8(%rbp), %rcx
	cltq
	vmovss	-4(%rcx), %xmm0
	movq	%rax, %rcx
	salq	$8, %rcx
	addq	%rbx, %rcx
	vmovss	%xmm0, (%rdx,%rcx,4)
	subq	$4, 8(%rbp)
.L506:
	movq	%r15, %r14
	leal	2(%r9), %ecx
	salq	%cl, %r14
	movq	40(%rsp), %rcx
	addq	%r8, %rcx
	shrq	$6, %rcx
	testq	%r14, 176(%rsp,%rcx,8)
	je	.L507
	movq	8(%rbp), %rcx
	movq	%rax, %r14
	salq	$8, %r14
	addq	%r11, %r14
	vmovss	-4(%rcx), %xmm0
	subq	$4, %rcx
	vmovss	%xmm0, (%rdx,%r14,4)
	movq	%rcx, 8(%rbp)
.L508:
	leal	1(%r9), %ecx
	movq	%r15, %r14
	salq	%cl, %r14
	movq	48(%rsp), %rcx
	addq	%r8, %rcx
	shrq	$6, %rcx
	testq	%r14, 176(%rsp,%rcx,8)
	je	.L509
	movq	8(%rbp), %rcx
	movq	%rax, %r14
	salq	$8, %r14
	addq	%r10, %r14
	vmovss	-4(%rcx), %xmm0
	subq	$4, %rcx
	vmovss	%xmm0, (%rdx,%r14,4)
	movq	%rcx, 8(%rbp)
.L510:
	movl	%r9d, %ecx
	movq	%r15, %r14
	salq	%cl, %r14
	movq	%r8, %rcx
	shrq	$6, %rcx
	testq	%r14, 176(%rsp,%rcx,8)
	je	.L511
	movq	8(%rbp), %rcx
	salq	$8, %rax
	addq	%rdi, %rax
	vmovss	-4(%rcx), %xmm0
	subq	$4, %rcx
	vmovss	%xmm0, (%rdx,%rax,4)
	movq	%rcx, 8(%rbp)
.L512:
	addq	$1, %r12
	subq	$8, %r8
	subl	$8, %r9d
	cmpq	$4, %r12
	jne	.L513
	subq	$64, 8(%rsp)
	subq	$262144, %rdx
	subl	$64, %esi
	cmpl	16(%rsp), %esi
	jne	.L504
	subl	$1, %r13d
	jne	.L515
	movq	0(%rbp), %rsi
	movl	$4, %ecx
	movq	(%rsp), %rax
	movq	%rsi, %rdx
.L516:
	vmovss	(%rdx), %xmm0
	addq	$262144, %rax
	addq	$64, %rdx
	vmovss	%xmm0, -262144(%rax)
	vmovss	-60(%rdx), %xmm0
	vmovss	%xmm0, -262140(%rax)
	vmovss	-56(%rdx), %xmm0
	vmovss	%xmm0, -262136(%rax)
	vmovss	-52(%rdx), %xmm0
	vmovss	%xmm0, -262132(%rax)
	vmovss	-48(%rdx), %xmm0
	vmovss	%xmm0, -261120(%rax)
	vmovss	-44(%rdx), %xmm0
	vmovss	%xmm0, -261116(%rax)
	vmovss	-40(%rdx), %xmm0
	vmovss	%xmm0, -261112(%rax)
	vmovss	-36(%rdx), %xmm0
	vmovss	%xmm0, -261108(%rax)
	vmovss	-32(%rdx), %xmm0
	vmovss	%xmm0, -260096(%rax)
	vmovss	-28(%rdx), %xmm0
	vmovss	%xmm0, -260092(%rax)
	vmovss	-24(%rdx), %xmm0
	vmovss	%xmm0, -260088(%rax)
	vmovss	-20(%rdx), %xmm0
	vmovss	%xmm0, -260084(%rax)
	vmovss	-16(%rdx), %xmm0
	vmovss	%xmm0, -259072(%rax)
	vmovss	-12(%rdx), %xmm0
	vmovss	%xmm0, -259068(%rax)
	vmovss	-8(%rdx), %xmm0
	vmovss	%xmm0, -259064(%rax)
	vmovss	-4(%rdx), %xmm0
	vmovss	%xmm0, -259060(%rax)
	subl	$1, %ecx
	jne	.L516
	movq	%rsi, 8(%rbp)
	addq	$599288, %rsp
	.cfi_remember_state
	.cfi_def_cfa_offset 56
	popq	%rbx
	.cfi_def_cfa_offset 48
	popq	%rbp
	.cfi_def_cfa_offset 40
	popq	%r12
	.cfi_def_cfa_offset 32
	popq	%r13
	.cfi_def_cfa_offset 24
	popq	%r14
	.cfi_def_cfa_offset 16
	popq	%r15
	.cfi_def_cfa_offset 8
	ret
.L505:
	.cfi_restore_state
	cltq
	movq	%rax, %rcx
	salq	$8, %rcx
	addq	%rbx, %rcx
	movl	$0x00000000, (%rdx,%rcx,4)
	jmp	.L506
.L511:
	salq	$8, %rax
	addq	%rdi, %rax
	movl	$0x00000000, (%rdx,%rax,4)
	jmp	.L512
.L509:
	movq	%rax, %rcx
	salq	$8, %rcx
	addq	%r10, %rcx
	movl	$0x00000000, (%rdx,%rcx,4)
	jmp	.L510
.L507:
	movq	%rax, %rcx
	salq	$8, %rcx
	addq	%r11, %rcx
	movl	$0x00000000, (%rdx,%rcx,4)
	jmp	.L508
	.cfi_endproc
.LFE1482:
	.size	_ZN18WaveletsOnInterval19FullTransformEngineILi256ELi256ELi256ELi256EE4loadIfEEvRSt6vectorIT_SaIS4_EESt6bitsetILm16777216EEPA256_A256_f, .-_ZN18WaveletsOnInterval19FullTransformEngineILi256ELi256ELi256ELi256EE4loadIfEEvRSt6vectorIT_SaIS4_EESt6bitsetILm16777216EEPA256_A256_f
	.section	.text.unlikely._ZN18WaveletsOnInterval19FullTransformEngineILi256ELi256ELi256ELi256EE4loadIfEEvRSt6vectorIT_SaIS4_EESt6bitsetILm16777216EEPA256_A256_f,"axG",@progbits,_ZN18WaveletsOnInterval19FullTransformEngineILi256ELi256ELi256ELi256EE4loadIfEEvRSt6vectorIT_SaIS4_EESt6bitsetILm16777216EEPA256_A256_f,comdat
.LCOLDE19:
	.section	.text._ZN18WaveletsOnInterval19FullTransformEngineILi256ELi256ELi256ELi256EE4loadIfEEvRSt6vectorIT_SaIS4_EESt6bitsetILm16777216EEPA256_A256_f,"axG",@progbits,_ZN18WaveletsOnInterval19FullTransformEngineILi256ELi256ELi256ELi256EE4loadIfEEvRSt6vectorIT_SaIS4_EESt6bitsetILm16777216EEPA256_A256_f,comdat
.LHOTE19:
	.section	.text.unlikely._ZN18WaveletsOnInterval3WI49transformILi32ELb1EEEvPfi,"axG",@progbits,_ZN18WaveletsOnInterval3WI49transformILi32ELb1EEEvPfi,comdat
.LCOLDB41:
	.section	.text._ZN18WaveletsOnInterval3WI49transformILi32ELb1EEEvPfi,"axG",@progbits,_ZN18WaveletsOnInterval3WI49transformILi32ELb1EEEvPfi,comdat
.LHOTB41:
	.p2align 4,,15
	.weak	_ZN18WaveletsOnInterval3WI49transformILi32ELb1EEEvPfi
	.type	_ZN18WaveletsOnInterval3WI49transformILi32ELb1EEEvPfi, @function
_ZN18WaveletsOnInterval3WI49transformILi32ELb1EEEvPfi:
.LFB1534:
	.cfi_startproc
	leaq	8(%rsp), %r10
	.cfi_def_cfa 10, 0
	andq	$-32, %rsp
	pushq	-8(%r10)
	pushq	%rbp
	leal	-1(%rsi), %eax
	.cfi_escape 0x10,0x6,0x2,0x76,0
	movq	%rsp, %rbp
	pushq	%r10
	.cfi_escape 0xf,0x3,0x76,0x78,0x6
	subq	$16, %rsp
	cmpl	$1, %eax
	jbe	.L557
	vmovups	32(%rdi), %ymm4
	vxorpd	%xmm6, %xmm6, %xmm6
	vmovups	(%rdi), %ymm1
	vmovups	96(%rdi), %ymm5
	vshufps	$136, %ymm4, %ymm1, %ymm3
	vshufps	$221, %ymm4, %ymm1, %ymm1
	vperm2f128	$3, %ymm3, %ymm3, %ymm2
	vshufps	$68, %ymm2, %ymm3, %ymm0
	vshufps	$238, %ymm2, %ymm3, %ymm2
	vinsertf128	$1, %xmm2, %ymm0, %ymm2
	vmovups	40(%rdi), %ymm14
	vperm2f128	$3, %ymm1, %ymm1, %ymm0
	vmovaps	.LC32(%rip), %ymm12
	vshufps	$68, %ymm0, %ymm1, %ymm3
	vshufps	$238, %ymm0, %ymm1, %ymm0
	vinsertf128	$1, %xmm0, %ymm3, %ymm0
	vmovups	64(%rdi), %ymm3
	vaddps	%ymm0, %ymm2, %ymm0
	vmovsd	.LC33(%rip), %xmm13
	vmovapd	.LC38(%rip), %ymm8
	vshufps	$136, %ymm5, %ymm3, %ymm4
	vshufps	$221, %ymm5, %ymm3, %ymm3
	vperm2f128	$3, %ymm4, %ymm4, %ymm2
	vshufps	$68, %ymm2, %ymm4, %ymm1
	vshufps	$238, %ymm2, %ymm4, %ymm2
	vinsertf128	$1, %xmm2, %ymm1, %ymm2
	vperm2f128	$3, %ymm3, %ymm3, %ymm1
	vshufps	$68, %ymm1, %ymm3, %ymm4
	vshufps	$238, %ymm1, %ymm3, %ymm1
	vinsertf128	$1, %xmm1, %ymm4, %ymm1
	vaddps	%ymm1, %ymm2, %ymm1
	vmulps	%ymm12, %ymm0, %ymm0
	vmovaps	%ymm0, -144(%rbp)
	vxorpd	%xmm5, %xmm5, %xmm5
	vcvtps2pd	%xmm0, %ymm10
	vcvtss2sd	-144(%rbp), %xmm6, %xmm6
	vcvtss2sd	-136(%rbp), %xmm5, %xmm5
	vextractf128	$0x1, %ymm0, %xmm0
	vmulsd	.LC35(%rip), %xmm6, %xmm3
	vmulps	%ymm12, %ymm1, %ymm1
	vmovaps	%ymm1, -112(%rbp)
	vxorpd	%xmm1, %xmm1, %xmm1
	vcvtss2sd	-140(%rbp), %xmm1, %xmm1
	vmulsd	%xmm13, %xmm1, %xmm7
	vmovss	4(%rdi), %xmm1
	vcvtps2pd	%xmm0, %ymm0
	vsubss	(%rdi), %xmm1, %xmm4
	vmulsd	.LC36(%rip), %xmm6, %xmm1
	vmovsd	.LC34(%rip), %xmm2
	vmovups	8(%rdi), %ymm6
	vmulsd	%xmm2, %xmm5, %xmm5
	vaddsd	%xmm7, %xmm3, %xmm3
	vshufps	$221, %ymm14, %ymm6, %ymm11
	vshufps	$136, %ymm14, %ymm6, %ymm6
	vperm2f128	$3, %ymm6, %ymm6, %ymm14
	vsubsd	%xmm7, %xmm1, %xmm1
	vperm2f128	$3, %ymm11, %ymm11, %ymm7
	vshufps	$68, %ymm7, %ymm11, %ymm15
	vshufps	$238, %ymm7, %ymm11, %ymm7
	vshufps	$68, %ymm14, %ymm6, %ymm11
	vinsertf128	$1, %xmm7, %ymm15, %ymm7
	vshufps	$238, %ymm14, %ymm6, %ymm14
	vinsertf128	$1, %xmm14, %ymm11, %ymm11
	vsubps	%ymm11, %ymm7, %ymm7
	vmovapd	.LC39(%rip), %ymm11
	vsubsd	%xmm5, %xmm3, %xmm3
	vaddsd	%xmm1, %xmm5, %xmm1
	vmulpd	%ymm11, %ymm10, %ymm6
	vmulpd	%ymm8, %ymm10, %ymm10
	vmulpd	%ymm11, %ymm0, %ymm11
	vmovss	.LC37(%rip), %xmm5
	vmulpd	%ymm8, %ymm0, %ymm0
	vcvtsd2ss	%xmm3, %xmm3, %xmm3
	vcvtsd2ss	%xmm1, %xmm1, %xmm1
	vsubss	%xmm1, %xmm3, %xmm1
	vsubss	%xmm1, %xmm4, %xmm1
	vmovups	-136(%rbp), %ymm4
	vcvtps2pd	%xmm4, %ymm9
	vextractf128	$0x1, %ymm4, %xmm4
	vmulpd	%ymm8, %ymm9, %ymm9
	vcvtps2pd	%xmm4, %ymm4
	vmulss	%xmm5, %xmm1, %xmm1
	vmulpd	%ymm8, %ymm4, %ymm4
	vmovss	%xmm1, -80(%rbp)
	vmovups	-140(%rbp), %ymm1
	vcvtps2pd	%xmm1, %ymm3
	vextractf128	$0x1, %ymm1, %xmm1
	vaddpd	%ymm3, %ymm6, %ymm6
	vcvtps2pd	%xmm1, %ymm1
	vaddpd	%ymm10, %ymm3, %ymm3
	vaddpd	%ymm1, %ymm11, %ymm11
	vaddpd	%ymm0, %ymm1, %ymm0
	vxorpd	%xmm1, %xmm1, %xmm1
	vcvtss2sd	-112(%rbp), %xmm1, %xmm1
	vaddpd	%ymm9, %ymm6, %ymm6
	vaddpd	%ymm4, %ymm11, %ymm11
	vsubpd	%ymm9, %ymm3, %ymm9
	vxorpd	%xmm3, %xmm3, %xmm3
	vcvtss2sd	-104(%rbp), %xmm3, %xmm3
	vmulsd	%xmm2, %xmm3, %xmm8
	vsubpd	%ymm4, %ymm0, %ymm0
	vcvtpd2psy	%ymm6, %xmm6
	vmovss	76(%rdi), %xmm4
	vcvtpd2psy	%ymm11, %xmm11
	vinsertf128	$0x1, %xmm11, %ymm6, %ymm6
	vcvtpd2psy	%ymm9, %xmm9
	vcvtpd2psy	%ymm0, %xmm0
	vinsertf128	$0x1, %xmm0, %ymm9, %ymm0
	vsubps	%ymm0, %ymm6, %ymm6
	vxorpd	%xmm0, %xmm0, %xmm0
	vsubss	72(%rdi), %xmm4, %xmm9
	vcvtss2sd	-108(%rbp), %xmm0, %xmm0
	vsubps	%ymm6, %ymm7, %ymm7
	vmovsd	.LC40(%rip), %xmm6
	vmulsd	%xmm6, %xmm1, %xmm4
	vmulps	%ymm12, %ymm7, %ymm12
	vxorps	%xmm7, %xmm7, %xmm7
	vmovups	%ymm12, -76(%rbp)
	vaddsd	%xmm0, %xmm4, %xmm4
	vaddsd	%xmm8, %xmm4, %xmm4
	vcvtsd2ss	%xmm4, %xmm7, %xmm7
	vmulsd	%xmm2, %xmm1, %xmm4
	vxorps	%xmm1, %xmm1, %xmm1
	vaddsd	%xmm4, %xmm0, %xmm4
	vsubsd	%xmm8, %xmm4, %xmm4
	vcvtsd2ss	%xmm4, %xmm1, %xmm1
	vsubss	%xmm1, %xmm7, %xmm1
	vxorps	%xmm7, %xmm7, %xmm7
	vsubss	%xmm1, %xmm9, %xmm1
	vmulss	%xmm5, %xmm1, %xmm1
	vmovss	%xmm1, -44(%rbp)
	vxorpd	%xmm1, %xmm1, %xmm1
	vcvtss2sd	-100(%rbp), %xmm1, %xmm1
	vmovss	84(%rdi), %xmm4
	vmulsd	%xmm2, %xmm1, %xmm9
	vsubss	80(%rdi), %xmm4, %xmm10
	vmulsd	%xmm6, %xmm0, %xmm4
	vaddsd	%xmm1, %xmm8, %xmm8
	movq	-144(%rbp), %rax
	movq	%rax, (%rdi)
	movq	-136(%rbp), %rax
	vaddsd	%xmm4, %xmm3, %xmm4
	vaddsd	%xmm9, %xmm4, %xmm4
	movq	%rax, 8(%rdi)
	movq	-128(%rbp), %rax
	vcvtsd2ss	%xmm4, %xmm7, %xmm7
	vmulsd	%xmm2, %xmm0, %xmm4
	vxorps	%xmm0, %xmm0, %xmm0
	movq	%rax, 16(%rdi)
	movq	-120(%rbp), %rax
	vaddsd	%xmm4, %xmm3, %xmm4
	movq	%rax, 24(%rdi)
	movq	-112(%rbp), %rax
	vsubsd	%xmm9, %xmm4, %xmm4
	vcvtsd2ss	%xmm4, %xmm0, %xmm0
	vsubss	%xmm0, %xmm7, %xmm0
	vmovss	92(%rdi), %xmm4
	vsubss	%xmm0, %xmm10, %xmm0
	vsubss	88(%rdi), %xmm4, %xmm10
	vmulsd	%xmm6, %xmm3, %xmm4
	vmulss	%xmm5, %xmm0, %xmm0
	vaddsd	%xmm4, %xmm1, %xmm4
	vmovss	%xmm0, -40(%rbp)
	vxorpd	%xmm0, %xmm0, %xmm0
	vcvtss2sd	-96(%rbp), %xmm0, %xmm0
	vmulsd	%xmm2, %xmm0, %xmm7
	vaddsd	%xmm9, %xmm0, %xmm9
	vaddsd	%xmm7, %xmm4, %xmm4
	vsubsd	%xmm7, %xmm8, %xmm8
	vcvtsd2ss	%xmm4, %xmm4, %xmm4
	vcvtsd2ss	%xmm8, %xmm8, %xmm8
	vsubss	%xmm8, %xmm4, %xmm3
	vmovss	100(%rdi), %xmm8
	vxorpd	%xmm4, %xmm4, %xmm4
	vcvtss2sd	-92(%rbp), %xmm4, %xmm4
	vaddsd	%xmm7, %xmm4, %xmm7
	vsubss	%xmm3, %xmm10, %xmm3
	vsubss	96(%rdi), %xmm8, %xmm10
	vmulsd	%xmm6, %xmm1, %xmm8
	vmulss	%xmm5, %xmm3, %xmm3
	vaddsd	%xmm0, %xmm8, %xmm8
	vmovss	%xmm3, -36(%rbp)
	vmulsd	%xmm2, %xmm4, %xmm3
	vaddsd	%xmm3, %xmm8, %xmm8
	vsubsd	%xmm3, %xmm9, %xmm9
	vcvtsd2ss	%xmm8, %xmm8, %xmm8
	vcvtsd2ss	%xmm9, %xmm9, %xmm9
	vsubss	%xmm9, %xmm8, %xmm1
	vxorpd	%xmm8, %xmm8, %xmm8
	vcvtss2sd	-88(%rbp), %xmm8, %xmm8
	vmulsd	%xmm2, %xmm8, %xmm9
	vmulsd	%xmm13, %xmm8, %xmm13
	vsubss	%xmm1, %xmm10, %xmm1
	vmulss	%xmm5, %xmm1, %xmm1
	vsubsd	%xmm9, %xmm7, %xmm7
	vcvtsd2ss	%xmm7, %xmm7, %xmm7
	vmovss	%xmm1, -32(%rbp)
	vmovss	108(%rdi), %xmm1
	vsubss	104(%rdi), %xmm1, %xmm10
	vmulsd	%xmm6, %xmm0, %xmm1
	vaddsd	%xmm4, %xmm1, %xmm1
	vmulsd	%xmm6, %xmm4, %xmm4
	vaddsd	%xmm9, %xmm1, %xmm1
	vaddsd	%xmm8, %xmm4, %xmm6
	vcvtsd2ss	%xmm1, %xmm1, %xmm1
	vsubss	%xmm7, %xmm1, %xmm0
	vxorpd	%xmm1, %xmm1, %xmm1
	vcvtss2sd	-84(%rbp), %xmm1, %xmm1
	vmulsd	%xmm2, %xmm1, %xmm7
	vxorps	%xmm2, %xmm2, %xmm2
	vsubss	%xmm0, %xmm10, %xmm0
	vaddsd	%xmm7, %xmm6, %xmm6
	vmulss	%xmm5, %xmm0, %xmm0
	vcvtsd2ss	%xmm6, %xmm2, %xmm2
	vaddsd	%xmm3, %xmm8, %xmm6
	vmovss	%xmm0, -28(%rbp)
	vmovss	116(%rdi), %xmm0
	vsubsd	%xmm13, %xmm3, %xmm3
	vsubss	112(%rdi), %xmm0, %xmm0
	vsubsd	%xmm7, %xmm6, %xmm6
	vaddsd	%xmm4, %xmm13, %xmm13
	vcvtsd2ss	%xmm6, %xmm6, %xmm6
	vsubss	%xmm6, %xmm2, %xmm2
	vsubss	%xmm2, %xmm0, %xmm2
	vmovss	124(%rdi), %xmm0
	vmulss	%xmm5, %xmm2, %xmm2
	vmovss	%xmm2, -24(%rbp)
	vsubss	120(%rdi), %xmm0, %xmm2
	vmulsd	.LC36(%rip), %xmm1, %xmm0
	vaddsd	%xmm0, %xmm3, %xmm3
	vmulsd	.LC35(%rip), %xmm1, %xmm0
	vcvtsd2ss	%xmm3, %xmm3, %xmm3
	vaddsd	%xmm0, %xmm13, %xmm8
	vxorps	%xmm0, %xmm0, %xmm0
	vcvtsd2ss	%xmm8, %xmm0, %xmm0
	vsubss	%xmm0, %xmm3, %xmm0
	vsubss	%xmm0, %xmm2, %xmm0
	vmulss	%xmm5, %xmm0, %xmm0
	vmovss	%xmm0, -20(%rbp)
	movq	%rax, 32(%rdi)
	movq	-80(%rbp), %rdx
	movq	-104(%rbp), %rax
	movq	%rdx, 64(%rdi)
	movq	-72(%rbp), %rdx
	movq	%rax, 40(%rdi)
	movq	-96(%rbp), %rax
	movq	%rdx, 72(%rdi)
	movq	-64(%rbp), %rdx
	movq	%rax, 48(%rdi)
	movq	-88(%rbp), %rax
	movq	%rdx, 80(%rdi)
	movq	-56(%rbp), %rdx
	movq	%rax, 56(%rdi)
	movq	%rdx, 88(%rdi)
	movq	-48(%rbp), %rdx
	movq	%rdx, 96(%rdi)
	movq	-40(%rbp), %rdx
	movq	%rdx, 104(%rdi)
	movq	-32(%rbp), %rdx
	movq	%rdx, 112(%rdi)
	movq	-24(%rbp), %rdx
	movq	%rdx, 120(%rdi)
	addq	$16, %rsp
	popq	%r10
	.cfi_remember_state
	.cfi_def_cfa 10, 0
	popq	%rbp
	leaq	-8(%r10), %rsp
	.cfi_def_cfa 7, 8
	ret
	.p2align 4,,10
	.p2align 3
.L557:
	.cfi_restore_state
	vxorpd	%xmm0, %xmm0, %xmm0
	vxorpd	%xmm1, %xmm1, %xmm1
	vcvtss2sd	(%rdi), %xmm0, %xmm0
	vcvtss2sd	8(%rdi), %xmm1, %xmm1
	vmovsd	.LC20(%rip), %xmm9
	leaq	64(%rdi), %rax
	vmovsd	.LC21(%rip), %xmm10
	vmulsd	%xmm9, %xmm0, %xmm0
	vmovups	40(%rdi), %ymm4
	vmovsd	.LC22(%rip), %xmm12
	vmulsd	%xmm10, %xmm1, %xmm1
	vmovapd	.LC24(%rip), %ymm15
	vaddsd	%xmm1, %xmm0, %xmm0
	vxorpd	%xmm1, %xmm1, %xmm1
	vcvtss2sd	16(%rdi), %xmm1, %xmm1
	vmulsd	%xmm9, %xmm1, %xmm1
	vsubsd	%xmm1, %xmm0, %xmm1
	vxorpd	%xmm0, %xmm0, %xmm0
	vcvtss2sd	24(%rdi), %xmm0, %xmm0
	vmulsd	%xmm12, %xmm0, %xmm0
	vaddsd	%xmm0, %xmm1, %xmm0
	vmovss	4(%rdi), %xmm1
	vcvtsd2ss	%xmm0, %xmm0, %xmm0
	vsubss	%xmm0, %xmm1, %xmm0
	vmovups	8(%rdi), %ymm1
	vshufps	$136, %ymm4, %ymm1, %ymm2
	vshufps	$221, %ymm4, %ymm1, %ymm1
	vmovss	%xmm0, -144(%rbp)
	vperm2f128	$3, %ymm2, %ymm2, %ymm0
	vshufps	$68, %ymm0, %ymm2, %ymm3
	vshufps	$238, %ymm0, %ymm2, %ymm0
	vmovups	24(%rdi), %ymm2
	vinsertf128	$1, %xmm0, %ymm3, %ymm0
	vcvtps2pd	%xmm0, %ymm4
	vshufps	$136, 56(%rdi), %ymm2, %ymm2
	vperm2f128	$3, %ymm2, %ymm2, %ymm3
	vshufps	$68, %ymm3, %ymm2, %ymm8
	vshufps	$238, %ymm3, %ymm2, %ymm3
	vmovups	16(%rdi), %ymm2
	vinsertf128	$1, %xmm3, %ymm8, %ymm8
	vshufps	$136, 48(%rdi), %ymm2, %ymm2
	vmulpd	%ymm15, %ymm4, %ymm4
	vperm2f128	$3, %ymm2, %ymm2, %ymm3
	vshufps	$68, %ymm3, %ymm2, %ymm11
	vshufps	$238, %ymm3, %ymm2, %ymm3
	vmovups	(%rdi), %ymm2
	vinsertf128	$1, %xmm3, %ymm11, %ymm11
	vshufps	$136, 32(%rdi), %ymm2, %ymm2
	vperm2f128	$3, %ymm2, %ymm2, %ymm3
	vcvtps2pd	%xmm11, %ymm7
	vshufps	$68, %ymm3, %ymm2, %ymm6
	vshufps	$238, %ymm3, %ymm2, %ymm3
	vperm2f128	$3, %ymm1, %ymm1, %ymm2
	vshufps	$68, %ymm2, %ymm1, %ymm13
	vshufps	$238, %ymm2, %ymm1, %ymm2
	vinsertf128	$1, %xmm2, %ymm13, %ymm13
	vinsertf128	$1, %xmm3, %ymm6, %ymm6
	vcvtps2pd	%xmm6, %ymm5
	vmovapd	.LC23(%rip), %ymm2
	vmulpd	%ymm15, %ymm7, %ymm7
	vextractf128	$0x1, %ymm11, %xmm11
	vcvtps2pd	%xmm11, %ymm11
	vmulpd	%ymm2, %ymm5, %ymm1
	vaddpd	%ymm4, %ymm1, %ymm14
	vextractf128	$0x1, %ymm0, %xmm1
	vcvtps2pd	%xmm1, %ymm1
	vmulpd	%ymm15, %ymm1, %ymm1
	vmulpd	%ymm15, %ymm11, %ymm0
	vmovsd	.LC26(%rip), %xmm11
	vaddpd	%ymm7, %ymm14, %ymm4
	vcvtps2pd	%xmm8, %ymm7
	vextractf128	$0x1, %ymm8, %xmm8
	vmovapd	.LC25(%rip), %ymm14
	vcvtps2pd	%xmm8, %ymm8
	vmulpd	%ymm14, %ymm7, %ymm7
	vsubpd	%ymm7, %ymm4, %ymm7
	vextractf128	$0x1, %ymm6, %xmm4
	vcvtps2pd	%xmm4, %ymm4
	vmulpd	%ymm2, %ymm4, %ymm3
	vaddpd	%ymm1, %ymm3, %ymm2
	vxorpd	%xmm3, %xmm3, %xmm3
	vcvtss2sd	80(%rdi), %xmm3, %xmm3
	vcvtpd2psy	%ymm7, %xmm7
	vaddpd	%ymm0, %ymm2, %ymm1
	vmulpd	%ymm14, %ymm8, %ymm0
	vxorpd	%xmm2, %xmm2, %xmm2
	vcvtss2sd	64(%rdi), %xmm2, %xmm2
	vsubpd	%ymm0, %ymm1, %ymm0
	vxorpd	%xmm1, %xmm1, %xmm1
	vcvtss2sd	72(%rdi), %xmm1, %xmm1
	vmulsd	%xmm11, %xmm1, %xmm8
	vcvtpd2psy	%ymm0, %xmm0
	vinsertf128	$0x1, %xmm0, %ymm7, %ymm0
	vsubps	%ymm0, %ymm13, %ymm0
	vmulsd	%xmm11, %xmm3, %xmm7
	vxorpd	%xmm13, %xmm13, %xmm13
	vcvtss2sd	88(%rdi), %xmm13, %xmm13
	vmulsd	%xmm11, %xmm13, %xmm14
	vmovups	%ymm0, -140(%rbp)
	vmovsd	.LC27(%rip), %xmm0
	vmulsd	%xmm0, %xmm2, %xmm2
	vmulsd	%xmm0, %xmm1, %xmm1
	vmulsd	%xmm0, %xmm3, %xmm3
	vaddsd	%xmm8, %xmm2, %xmm2
	vmulsd	%xmm12, %xmm13, %xmm8
	vaddsd	%xmm7, %xmm1, %xmm1
	vmulsd	%xmm0, %xmm13, %xmm13
	vaddsd	%xmm14, %xmm3, %xmm3
	vaddsd	%xmm7, %xmm2, %xmm2
	vaddsd	%xmm14, %xmm1, %xmm1
	vsubsd	%xmm8, %xmm2, %xmm2
	vmovss	76(%rdi), %xmm8
	vcvtsd2ss	%xmm2, %xmm2, %xmm2
	vsubss	%xmm2, %xmm8, %xmm2
	vmovss	84(%rdi), %xmm8
	vmovss	%xmm2, -108(%rbp)
	vxorpd	%xmm2, %xmm2, %xmm2
	vcvtss2sd	96(%rdi), %xmm2, %xmm2
	vmulsd	%xmm12, %xmm2, %xmm7
	vmulsd	%xmm0, %xmm2, %xmm0
	vsubsd	%xmm7, %xmm1, %xmm1
	vcvtsd2ss	%xmm1, %xmm1, %xmm1
	vsubss	%xmm1, %xmm8, %xmm1
	vxorpd	%xmm8, %xmm8, %xmm8
	vcvtss2sd	104(%rdi), %xmm8, %xmm8
	vmulsd	%xmm12, %xmm8, %xmm14
	vmovss	%xmm1, -104(%rbp)
	vmulsd	%xmm11, %xmm2, %xmm1
	vaddsd	%xmm1, %xmm3, %xmm3
	vaddsd	%xmm13, %xmm1, %xmm1
	vsubsd	%xmm14, %xmm3, %xmm3
	vmovss	92(%rdi), %xmm14
	vmovaps	%ymm6, -80(%rbp)
	vmulsd	.LC28(%rip), %xmm2, %xmm2
	vcvtsd2ss	%xmm3, %xmm3, %xmm3
	vsubss	%xmm3, %xmm14, %xmm3
	vmulsd	%xmm11, %xmm8, %xmm14
	vmovss	%xmm3, -100(%rbp)
	vxorpd	%xmm3, %xmm3, %xmm3
	vcvtss2sd	112(%rdi), %xmm3, %xmm3
	vaddsd	%xmm14, %xmm1, %xmm13
	vmulsd	%xmm12, %xmm3, %xmm1
	vsubsd	%xmm1, %xmm13, %xmm13
	vmovss	100(%rdi), %xmm1
	vcvtsd2ss	%xmm13, %xmm13, %xmm13
	vsubss	%xmm13, %xmm1, %xmm13
	vaddsd	%xmm14, %xmm0, %xmm1
	vmulsd	%xmm11, %xmm3, %xmm0
	vxorpd	%xmm11, %xmm11, %xmm11
	vcvtss2sd	120(%rdi), %xmm11, %xmm11
	vmulsd	%xmm12, %xmm11, %xmm12
	vmovss	%xmm13, -96(%rbp)
	vaddsd	%xmm0, %xmm1, %xmm0
	vmovss	108(%rdi), %xmm1
	vsubsd	%xmm12, %xmm0, %xmm0
	vcvtsd2ss	%xmm0, %xmm0, %xmm0
	vsubss	%xmm0, %xmm1, %xmm0
	vmovss	116(%rdi), %xmm1
	vmovss	%xmm0, -92(%rbp)
	vmulsd	%xmm9, %xmm8, %xmm0
	vsubsd	%xmm0, %xmm7, %xmm7
	vmulsd	%xmm10, %xmm3, %xmm0
	vaddsd	%xmm0, %xmm7, %xmm7
	vmulsd	%xmm9, %xmm11, %xmm0
	vaddsd	%xmm0, %xmm7, %xmm0
	vmovsd	.LC30(%rip), %xmm7
	vcvtsd2ss	%xmm0, %xmm0, %xmm0
	vsubss	%xmm0, %xmm1, %xmm0
	vmulsd	.LC29(%rip), %xmm8, %xmm1
	vmovss	%xmm0, -88(%rbp)
	vmulsd	%xmm7, %xmm3, %xmm0
	vaddsd	%xmm1, %xmm2, %xmm2
	vsubsd	%xmm0, %xmm2, %xmm1
	vmulsd	%xmm7, %xmm11, %xmm0
	vaddsd	%xmm0, %xmm1, %xmm0
	vmovss	124(%rdi), %xmm1
	vcvtsd2ss	%xmm0, %xmm0, %xmm0
	vsubss	%xmm0, %xmm1, %xmm0
	vmovss	%xmm0, -84(%rbp)
	vmovss	64(%rdi), %xmm0
	vmovss	%xmm0, -48(%rbp)
	vmovss	72(%rdi), %xmm0
	vmovss	%xmm0, -44(%rbp)
	vmovss	80(%rdi), %xmm0
	vmovss	%xmm0, -40(%rbp)
	vmovss	88(%rdi), %xmm0
	vmovss	%xmm0, -36(%rbp)
	vmovss	96(%rdi), %xmm0
	vmovss	%xmm0, -32(%rbp)
	vmovss	104(%rdi), %xmm0
	vmovss	%xmm0, -28(%rbp)
	vmovss	112(%rdi), %xmm0
	vmovss	%xmm0, -24(%rbp)
	vmovss	120(%rdi), %xmm0
	vmovss	%xmm0, -20(%rbp)
	cmpl	$2, %esi
	jne	.L555
	vmovapd	.LC31(%rip), %ymm3
	vmovaps	-144(%rbp), %ymm2
	vcvtps2pd	%xmm2, %ymm0
	vextractf128	$0x1, %ymm2, %xmm2
	vmulpd	%ymm3, %ymm0, %ymm0
	vcvtps2pd	%xmm2, %ymm2
	vaddpd	%ymm0, %ymm5, %ymm0
	vmulpd	%ymm3, %ymm2, %ymm2
	vaddpd	%ymm2, %ymm4, %ymm1
	vcvtpd2psy	%ymm0, %xmm0
	vcvtpd2psy	%ymm1, %xmm1
	vinsertf128	$0x1, %xmm1, %ymm0, %ymm0
	vmovaps	-112(%rbp), %ymm1
	vmovaps	%ymm0, -80(%rbp)
	vmovaps	-48(%rbp), %ymm0
	vcvtps2pd	%xmm1, %ymm4
	vextractf128	$0x1, %ymm1, %xmm1
	vmulpd	%ymm3, %ymm4, %ymm4
	vcvtps2pd	%xmm1, %ymm1
	vcvtps2pd	%xmm0, %ymm2
	vmulpd	%ymm3, %ymm1, %ymm1
	vaddpd	%ymm4, %ymm2, %ymm2
	vextractf128	$0x1, %ymm0, %xmm0
	vcvtps2pd	%xmm0, %ymm0
	vaddpd	%ymm1, %ymm0, %ymm0
	vcvtpd2psy	%ymm2, %xmm1
	vcvtpd2psy	%ymm0, %xmm0
	vinsertf128	$0x1, %xmm0, %ymm1, %ymm0
	vmovaps	%ymm0, -48(%rbp)
.L555:
	movq	-80(%rbp), %rdx
	movq	%rdx, (%rdi)
	movq	-72(%rbp), %rdx
	movq	%rdx, 8(%rdi)
	movq	-64(%rbp), %rdx
	movq	%rdx, 16(%rdi)
	movq	-56(%rbp), %rdx
	movq	%rdx, 24(%rdi)
	movq	-48(%rbp), %rdx
	movq	%rdx, 32(%rdi)
	movq	-40(%rbp), %rdx
	movq	%rdx, 40(%rdi)
	movq	-32(%rbp), %rdx
	movq	%rdx, 48(%rdi)
	movq	-24(%rbp), %rdx
	movq	%rdx, 56(%rdi)
	movq	-144(%rbp), %rdx
	movq	%rdx, 64(%rdi)
	movq	-136(%rbp), %rdx
	movq	%rdx, 8(%rax)
	movq	-128(%rbp), %rdx
	movq	%rdx, 16(%rax)
	movq	-120(%rbp), %rdx
	movq	%rdx, 24(%rax)
	movq	-112(%rbp), %rdx
	movq	%rdx, 32(%rax)
	movq	-104(%rbp), %rdx
	movq	%rdx, 40(%rax)
	movq	-96(%rbp), %rdx
	movq	%rdx, 48(%rax)
	movq	-88(%rbp), %rdx
	movq	%rdx, 56(%rax)
	addq	$16, %rsp
	popq	%r10
	.cfi_def_cfa 10, 0
	popq	%rbp
	leaq	-8(%r10), %rsp
	.cfi_def_cfa 7, 8
	ret
	.cfi_endproc
.LFE1534:
	.size	_ZN18WaveletsOnInterval3WI49transformILi32ELb1EEEvPfi, .-_ZN18WaveletsOnInterval3WI49transformILi32ELb1EEEvPfi
	.section	.text.unlikely._ZN18WaveletsOnInterval3WI49transformILi32ELb1EEEvPfi,"axG",@progbits,_ZN18WaveletsOnInterval3WI49transformILi32ELb1EEEvPfi,comdat
.LCOLDE41:
	.section	.text._ZN18WaveletsOnInterval3WI49transformILi32ELb1EEEvPfi,"axG",@progbits,_ZN18WaveletsOnInterval3WI49transformILi32ELb1EEEvPfi,comdat
.LHOTE41:
	.section	.text.unlikely._ZN18WaveletsOnInterval3WI49transformILi32ELb0EEEvPfi,"axG",@progbits,_ZN18WaveletsOnInterval3WI49transformILi32ELb0EEEvPfi,comdat
.LCOLDB42:
	.section	.text._ZN18WaveletsOnInterval3WI49transformILi32ELb0EEEvPfi,"axG",@progbits,_ZN18WaveletsOnInterval3WI49transformILi32ELb0EEEvPfi,comdat
.LHOTB42:
	.p2align 4,,15
	.weak	_ZN18WaveletsOnInterval3WI49transformILi32ELb0EEEvPfi
	.type	_ZN18WaveletsOnInterval3WI49transformILi32ELb0EEEvPfi, @function
_ZN18WaveletsOnInterval3WI49transformILi32ELb0EEEvPfi:
.LFB1535:
	.cfi_startproc
	leaq	8(%rsp), %r10
	.cfi_def_cfa 10, 0
	andq	$-32, %rsp
	movl	$64, %edx
	pushq	-8(%r10)
	pushq	%rbp
	leal	-1(%rsi), %eax
	.cfi_escape 0x10,0x6,0x2,0x76,0
	movq	%rsp, %rbp
	pushq	%r12
	.cfi_escape 0x10,0xc,0x2,0x76,0x78
	movl	%esi, %r12d
	pushq	%r10
	.cfi_escape 0xf,0x3,0x76,0x70,0x6
	leaq	64(%rdi), %rsi
	pushq	%rbx
	.cfi_escape 0x10,0x3,0x2,0x76,0x68
	movq	%rdi, %rbx
	subq	$152, %rsp
	cmpl	$1, %eax
	movq	(%rdi), %rax
	movq	%rax, -176(%rbp)
	movq	8(%rdi), %rax
	movq	%rax, -168(%rbp)
	movq	16(%rdi), %rax
	movq	%rax, -160(%rbp)
	movq	24(%rdi), %rax
	movq	%rax, -152(%rbp)
	movq	32(%rdi), %rax
	movq	%rax, -144(%rbp)
	movq	40(%rdi), %rax
	movq	%rax, -136(%rbp)
	movq	48(%rdi), %rax
	movq	%rax, -128(%rbp)
	movq	56(%rdi), %rax
	leaq	-112(%rbp), %rdi
	movq	%rax, -120(%rbp)
	jbe	.L572
	call	memcpy
	vxorpd	%xmm8, %xmm8, %xmm8
	vxorpd	%xmm1, %xmm1, %xmm1
	vmovsd	.LC33(%rip), %xmm6
	vcvtss2sd	-176(%rbp), %xmm8, %xmm8
	vcvtss2sd	-172(%rbp), %xmm1, %xmm1
	vxorpd	%xmm7, %xmm7, %xmm7
	vmovsd	.LC36(%rip), %xmm4
	vmulsd	%xmm6, %xmm1, %xmm1
	vcvtss2sd	-168(%rbp), %xmm7, %xmm7
	vmovss	-112(%rbp), %xmm3
	vmovsd	.LC35(%rip), %xmm5
	vmulsd	%xmm4, %xmm8, %xmm2
	vmovsd	.LC34(%rip), %xmm0
	vmulsd	%xmm5, %xmm8, %xmm8
	vmovaps	-176(%rbp), %ymm9
	vmulsd	%xmm0, %xmm7, %xmm7
	vmovups	-108(%rbp), %ymm10
	vcvtps2pd	%xmm9, %ymm12
	vextractf128	$0x1, %ymm9, %xmm9
	vcvtps2pd	%xmm9, %ymm9
	vsubsd	%xmm1, %xmm2, %xmm2
	vaddsd	%xmm8, %xmm1, %xmm1
	vmovups	-172(%rbp), %ymm8
	vaddsd	%xmm7, %xmm2, %xmm2
	vcvtps2pd	%xmm8, %ymm11
	vextractf128	$0x1, %ymm8, %xmm8
	vcvtps2pd	%xmm8, %ymm8
	vsubsd	%xmm7, %xmm1, %xmm1
	vcvtsd2ss	%xmm2, %xmm2, %xmm2
	vsubss	%xmm3, %xmm2, %xmm2
	vcvtsd2ss	%xmm1, %xmm1, %xmm1
	vaddss	%xmm1, %xmm3, %xmm1
	vmovss	%xmm2, (%rbx)
	vmovups	-168(%rbp), %ymm2
	vmovss	%xmm1, 4(%rbx)
	vcvtps2pd	%xmm2, %ymm7
	vextractf128	$0x1, %ymm2, %xmm3
	vmovapd	.LC38(%rip), %ymm1
	vcvtps2pd	%xmm3, %ymm3
	vmulpd	%ymm1, %ymm7, %ymm7
	vmulpd	%ymm1, %ymm3, %ymm3
	vmulpd	%ymm1, %ymm12, %ymm2
	vmulpd	%ymm1, %ymm9, %ymm1
	vaddpd	%ymm11, %ymm2, %ymm2
	vaddpd	%ymm8, %ymm1, %ymm1
	vsubpd	%ymm7, %ymm2, %ymm2
	vsubpd	%ymm3, %ymm1, %ymm1
	vcvtpd2psy	%ymm2, %xmm2
	vcvtpd2psy	%ymm1, %xmm1
	vinsertf128	$0x1, %xmm1, %ymm2, %ymm2
	vsubps	%ymm10, %ymm2, %ymm2
	vmovapd	.LC39(%rip), %ymm1
	vmulpd	%ymm1, %ymm9, %ymm9
	vmulpd	%ymm1, %ymm12, %ymm12
	vaddpd	%ymm9, %ymm8, %ymm8
	vmovss	-76(%rbp), %xmm9
	vaddpd	%ymm12, %ymm11, %ymm11
	vaddpd	%ymm8, %ymm3, %ymm3
	vmovsd	.LC40(%rip), %xmm8
	vaddpd	%ymm11, %ymm7, %ymm7
	vcvtpd2psy	%ymm3, %xmm3
	vcvtpd2psy	%ymm7, %xmm7
	vinsertf128	$0x1, %xmm3, %ymm7, %ymm3
	vaddps	%ymm3, %ymm10, %ymm10
	vunpcklps	%ymm10, %ymm2, %ymm3
	vunpckhps	%ymm10, %ymm2, %ymm2
	vinsertf128	$1, %xmm2, %ymm3, %ymm1
	vperm2f128	$49, %ymm2, %ymm3, %ymm2
	vmovups	%ymm2, 40(%rbx)
	vxorpd	%xmm2, %xmm2, %xmm2
	vcvtss2sd	-144(%rbp), %xmm2, %xmm2
	vmulsd	%xmm0, %xmm2, %xmm7
	vxorpd	%xmm3, %xmm3, %xmm3
	vmulsd	%xmm8, %xmm2, %xmm2
	vcvtss2sd	-136(%rbp), %xmm3, %xmm3
	vmovups	%ymm1, 8(%rbx)
	vmulsd	%xmm0, %xmm3, %xmm11
	vxorpd	%xmm1, %xmm1, %xmm1
	vcvtss2sd	-140(%rbp), %xmm1, %xmm1
	vaddsd	%xmm1, %xmm7, %xmm7
	vaddsd	%xmm2, %xmm1, %xmm2
	vsubsd	%xmm11, %xmm7, %xmm7
	vaddsd	%xmm2, %xmm11, %xmm2
	vcvtsd2ss	%xmm7, %xmm7, %xmm7
	vsubss	%xmm9, %xmm7, %xmm7
	vcvtsd2ss	%xmm2, %xmm2, %xmm2
	vaddss	%xmm2, %xmm9, %xmm2
	vmovss	-72(%rbp), %xmm9
	vmovss	%xmm7, 72(%rbx)
	vmulsd	%xmm0, %xmm1, %xmm7
	vmovss	%xmm2, 76(%rbx)
	vmulsd	%xmm8, %xmm1, %xmm1
	vxorpd	%xmm2, %xmm2, %xmm2
	vcvtss2sd	-132(%rbp), %xmm2, %xmm2
	vmulsd	%xmm0, %xmm2, %xmm10
	vaddsd	%xmm2, %xmm11, %xmm11
	vaddsd	%xmm7, %xmm3, %xmm7
	vaddsd	%xmm1, %xmm3, %xmm1
	vmulsd	%xmm8, %xmm3, %xmm3
	vsubsd	%xmm10, %xmm7, %xmm7
	vaddsd	%xmm1, %xmm10, %xmm1
	vcvtsd2ss	%xmm7, %xmm7, %xmm7
	vsubss	%xmm9, %xmm7, %xmm7
	vcvtsd2ss	%xmm1, %xmm1, %xmm1
	vaddss	%xmm1, %xmm9, %xmm1
	vxorpd	%xmm9, %xmm9, %xmm9
	vcvtss2sd	-128(%rbp), %xmm9, %xmm9
	vaddsd	%xmm3, %xmm2, %xmm3
	vmulsd	%xmm8, %xmm2, %xmm2
	vmovss	%xmm7, 80(%rbx)
	vmulsd	%xmm0, %xmm9, %xmm7
	vaddsd	%xmm9, %xmm10, %xmm10
	vmovss	%xmm1, 84(%rbx)
	vmovss	-68(%rbp), %xmm1
	vaddsd	%xmm2, %xmm9, %xmm2
	vmulsd	%xmm8, %xmm9, %xmm9
	vsubsd	%xmm7, %xmm11, %xmm11
	vaddsd	%xmm3, %xmm7, %xmm3
	vcvtsd2ss	%xmm11, %xmm11, %xmm11
	vsubss	%xmm1, %xmm11, %xmm11
	vcvtsd2ss	%xmm3, %xmm3, %xmm3
	vaddss	%xmm3, %xmm1, %xmm3
	vxorpd	%xmm1, %xmm1, %xmm1
	vmovss	%xmm11, 88(%rbx)
	vmovss	%xmm3, 92(%rbx)
	vcvtss2sd	-124(%rbp), %xmm1, %xmm1
	vmulsd	%xmm0, %xmm1, %xmm3
	vmovss	-64(%rbp), %xmm11
	vaddsd	%xmm9, %xmm1, %xmm9
	vaddsd	%xmm1, %xmm7, %xmm7
	vmulsd	%xmm8, %xmm1, %xmm1
	vsubsd	%xmm3, %xmm10, %xmm10
	vaddsd	%xmm2, %xmm3, %xmm2
	vcvtsd2ss	%xmm10, %xmm10, %xmm10
	vsubss	%xmm11, %xmm10, %xmm10
	vcvtsd2ss	%xmm2, %xmm2, %xmm2
	vaddss	%xmm2, %xmm11, %xmm2
	vmovss	-60(%rbp), %xmm11
	vmovss	%xmm10, 96(%rbx)
	vxorpd	%xmm10, %xmm10, %xmm10
	vcvtss2sd	-120(%rbp), %xmm10, %xmm10
	vmulsd	%xmm6, %xmm10, %xmm6
	vmovss	%xmm2, 100(%rbx)
	vmulsd	%xmm0, %xmm10, %xmm2
	vsubsd	%xmm2, %xmm7, %xmm7
	vaddsd	%xmm9, %xmm2, %xmm2
	vmovss	-56(%rbp), %xmm9
	vcvtsd2ss	%xmm7, %xmm7, %xmm7
	vsubss	%xmm11, %xmm7, %xmm7
	vcvtsd2ss	%xmm2, %xmm2, %xmm2
	vaddss	%xmm2, %xmm11, %xmm2
	vmovss	%xmm7, 104(%rbx)
	vaddsd	%xmm10, %xmm3, %xmm7
	vmovss	%xmm2, 108(%rbx)
	vxorpd	%xmm2, %xmm2, %xmm2
	vcvtss2sd	-116(%rbp), %xmm2, %xmm2
	vmulsd	%xmm0, %xmm2, %xmm0
	vmulsd	%xmm5, %xmm2, %xmm5
	vsubsd	%xmm6, %xmm3, %xmm3
	vmulsd	%xmm4, %xmm2, %xmm2
	vsubsd	%xmm0, %xmm7, %xmm7
	vaddsd	%xmm2, %xmm3, %xmm2
	vcvtsd2ss	%xmm7, %xmm7, %xmm7
	vsubss	%xmm9, %xmm7, %xmm7
	vcvtsd2ss	%xmm2, %xmm2, %xmm2
	vmovss	%xmm7, 112(%rbx)
	vaddsd	%xmm1, %xmm10, %xmm7
	vaddsd	%xmm6, %xmm1, %xmm1
	vaddsd	%xmm7, %xmm0, %xmm0
	vaddsd	%xmm5, %xmm1, %xmm1
	vcvtsd2ss	%xmm0, %xmm0, %xmm0
	vaddss	%xmm0, %xmm9, %xmm0
	vcvtsd2ss	%xmm1, %xmm1, %xmm1
	vmovss	%xmm0, 116(%rbx)
	vmovss	-52(%rbp), %xmm0
	vsubss	%xmm0, %xmm1, %xmm1
	vaddss	%xmm2, %xmm0, %xmm2
	vmovss	%xmm1, 120(%rbx)
	vmovss	%xmm2, 124(%rbx)
.L558:
	addq	$152, %rsp
	popq	%rbx
	popq	%r10
	.cfi_remember_state
	.cfi_def_cfa 10, 0
	popq	%r12
	popq	%rbp
	leaq	-8(%r10), %rsp
	.cfi_def_cfa 7, 8
	ret
	.p2align 4,,10
	.p2align 3
.L572:
	.cfi_restore_state
	call	memcpy
	cmpl	$2, %r12d
	jne	.L563
	vmovapd	.LC31(%rip), %ymm3
	vmovaps	-176(%rbp), %ymm0
	vmovaps	-112(%rbp), %ymm2
	vcvtps2pd	%xmm0, %ymm1
	vextractf128	$0x1, %ymm0, %xmm0
	vcvtps2pd	%xmm0, %ymm0
	vcvtps2pd	%xmm2, %ymm4
	vextractf128	$0x1, %ymm2, %xmm2
	vmulpd	%ymm3, %ymm4, %ymm4
	vcvtps2pd	%xmm2, %ymm2
	vsubpd	%ymm4, %ymm1, %ymm1
	vmulpd	%ymm3, %ymm2, %ymm2
	vsubpd	%ymm2, %ymm0, %ymm0
	vcvtpd2psy	%ymm1, %xmm1
	vcvtpd2psy	%ymm0, %xmm0
	vinsertf128	$0x1, %xmm0, %ymm1, %ymm0
	vmovaps	-80(%rbp), %ymm1
	vmovaps	%ymm0, -176(%rbp)
	vmovaps	-144(%rbp), %ymm0
	vcvtps2pd	%xmm1, %ymm4
	vextractf128	$0x1, %ymm1, %xmm1
	vmulpd	%ymm3, %ymm4, %ymm4
	vcvtps2pd	%xmm1, %ymm1
	vcvtps2pd	%xmm0, %ymm2
	vmulpd	%ymm3, %ymm1, %ymm1
	vsubpd	%ymm4, %ymm2, %ymm2
	vextractf128	$0x1, %ymm0, %xmm0
	vcvtps2pd	%xmm0, %ymm0
	vsubpd	%ymm1, %ymm0, %ymm0
	vcvtpd2psy	%ymm2, %xmm1
	vcvtpd2psy	%ymm0, %xmm0
	vinsertf128	$0x1, %xmm0, %ymm1, %ymm0
	vmovaps	%ymm0, -144(%rbp)
.L563:
	vxorpd	%xmm1, %xmm1, %xmm1
	vcvtss2sd	-176(%rbp), %xmm1, %xmm1
	vxorpd	%xmm10, %xmm10, %xmm10
	vxorpd	%xmm9, %xmm9, %xmm9
	vmovss	-176(%rbp), %xmm0
	vxorpd	%xmm5, %xmm5, %xmm5
	vxorpd	%xmm12, %xmm12, %xmm12
	vmovss	%xmm0, (%rbx)
	vmovss	-172(%rbp), %xmm0
	vmovss	%xmm0, 8(%rbx)
	vmovss	-168(%rbp), %xmm0
	vmovss	%xmm0, 16(%rbx)
	vmovss	-164(%rbp), %xmm0
	vmovss	%xmm0, 24(%rbx)
	vmovss	-160(%rbp), %xmm0
	vmovss	%xmm0, 32(%rbx)
	vmovss	-156(%rbp), %xmm0
	vmovss	%xmm0, 40(%rbx)
	vmovss	-152(%rbp), %xmm0
	vmovss	%xmm0, 48(%rbx)
	vmovss	-148(%rbp), %xmm0
	vmovss	%xmm0, 56(%rbx)
	vmovss	-144(%rbp), %xmm0
	vmovss	%xmm0, 64(%rbx)
	vmovss	-140(%rbp), %xmm0
	vmovss	%xmm0, 72(%rbx)
	vmovss	-136(%rbp), %xmm0
	vmovss	%xmm0, 80(%rbx)
	vmovss	-132(%rbp), %xmm0
	vmovss	%xmm0, 88(%rbx)
	vmovss	-128(%rbp), %xmm0
	vmovss	%xmm0, 96(%rbx)
	vmovss	-124(%rbp), %xmm0
	vmovss	%xmm0, 104(%rbx)
	vmovss	-120(%rbp), %xmm0
	vmovss	%xmm0, 112(%rbx)
	vmovss	-116(%rbp), %xmm0
	vmovss	%xmm0, 120(%rbx)
	vmovsd	.LC20(%rip), %xmm7
	vcvtss2sd	-172(%rbp), %xmm10, %xmm10
	vcvtss2sd	-168(%rbp), %xmm9, %xmm9
	vmovsd	.LC21(%rip), %xmm8
	vcvtss2sd	-164(%rbp), %xmm5, %xmm5
	vcvtss2sd	-160(%rbp), %xmm12, %xmm12
	vmovsd	.LC22(%rip), %xmm3
	vmulsd	%xmm7, %xmm1, %xmm0
	vmulsd	%xmm8, %xmm10, %xmm2
	vmulsd	%xmm3, %xmm5, %xmm11
	vaddsd	%xmm2, %xmm0, %xmm0
	vmulsd	%xmm7, %xmm9, %xmm2
	vsubsd	%xmm2, %xmm0, %xmm0
	vmovsd	.LC26(%rip), %xmm2
	vmulsd	%xmm2, %xmm10, %xmm4
	vaddsd	%xmm11, %xmm0, %xmm0
	vmulsd	%xmm2, %xmm9, %xmm6
	vcvtsd2ss	%xmm0, %xmm0, %xmm0
	vaddss	-112(%rbp), %xmm0, %xmm0
	vmovss	%xmm0, 4(%rbx)
	vmovsd	.LC27(%rip), %xmm0
	vmulsd	%xmm0, %xmm1, %xmm1
	vmulsd	%xmm0, %xmm10, %xmm10
	vmulsd	%xmm0, %xmm9, %xmm9
	vaddsd	%xmm4, %xmm1, %xmm4
	vaddsd	%xmm6, %xmm4, %xmm1
	vmulsd	%xmm3, %xmm12, %xmm4
	vaddsd	%xmm10, %xmm6, %xmm6
	vxorpd	%xmm10, %xmm10, %xmm10
	vcvtss2sd	-136(%rbp), %xmm10, %xmm10
	vsubsd	%xmm11, %xmm1, %xmm1
	vxorpd	%xmm11, %xmm11, %xmm11
	vcvtss2sd	-148(%rbp), %xmm11, %xmm11
	vcvtsd2ss	%xmm1, %xmm1, %xmm1
	vaddss	-108(%rbp), %xmm1, %xmm1
	vmovss	%xmm1, 12(%rbx)
	vmulsd	%xmm2, %xmm5, %xmm1
	vmulsd	%xmm0, %xmm5, %xmm5
	vaddsd	%xmm1, %xmm6, %xmm6
	vaddsd	%xmm9, %xmm1, %xmm1
	vsubsd	%xmm4, %xmm6, %xmm4
	vxorpd	%xmm6, %xmm6, %xmm6
	vcvtss2sd	-156(%rbp), %xmm6, %xmm6
	vmulsd	%xmm3, %xmm6, %xmm9
	vcvtsd2ss	%xmm4, %xmm4, %xmm4
	vaddss	-104(%rbp), %xmm4, %xmm4
	vmovss	%xmm4, 20(%rbx)
	vmulsd	%xmm2, %xmm12, %xmm4
	vmulsd	%xmm0, %xmm12, %xmm12
	vaddsd	%xmm4, %xmm1, %xmm1
	vaddsd	%xmm5, %xmm4, %xmm4
	vsubsd	%xmm9, %xmm1, %xmm1
	vxorpd	%xmm9, %xmm9, %xmm9
	vcvtss2sd	-152(%rbp), %xmm9, %xmm9
	vmulsd	%xmm3, %xmm9, %xmm5
	vcvtsd2ss	%xmm1, %xmm1, %xmm1
	vaddss	-100(%rbp), %xmm1, %xmm1
	vmovss	%xmm1, 28(%rbx)
	vmulsd	%xmm2, %xmm6, %xmm1
	vmulsd	%xmm0, %xmm6, %xmm6
	vaddsd	%xmm1, %xmm4, %xmm4
	vaddsd	%xmm12, %xmm1, %xmm1
	vsubsd	%xmm5, %xmm4, %xmm4
	vmulsd	%xmm3, %xmm11, %xmm5
	vcvtsd2ss	%xmm4, %xmm4, %xmm4
	vaddss	-96(%rbp), %xmm4, %xmm4
	vmovss	%xmm4, 36(%rbx)
	vmulsd	%xmm2, %xmm9, %xmm4
	vmulsd	%xmm0, %xmm9, %xmm9
	vaddsd	%xmm4, %xmm1, %xmm1
	vaddsd	%xmm6, %xmm4, %xmm4
	vsubsd	%xmm5, %xmm1, %xmm1
	vmulsd	%xmm2, %xmm11, %xmm5
	vmulsd	%xmm0, %xmm11, %xmm11
	vcvtsd2ss	%xmm1, %xmm1, %xmm1
	vaddss	-92(%rbp), %xmm1, %xmm1
	vaddsd	%xmm5, %xmm4, %xmm4
	vmovss	%xmm1, 44(%rbx)
	vxorpd	%xmm1, %xmm1, %xmm1
	vcvtss2sd	-144(%rbp), %xmm1, %xmm1
	vmulsd	%xmm3, %xmm1, %xmm6
	vaddsd	%xmm9, %xmm5, %xmm5
	vsubsd	%xmm6, %xmm4, %xmm4
	vxorpd	%xmm6, %xmm6, %xmm6
	vcvtss2sd	-140(%rbp), %xmm6, %xmm6
	vmulsd	%xmm3, %xmm6, %xmm9
	vcvtsd2ss	%xmm4, %xmm4, %xmm4
	vaddss	-88(%rbp), %xmm4, %xmm4
	vmovss	%xmm4, 52(%rbx)
	vmulsd	%xmm2, %xmm1, %xmm4
	vmulsd	%xmm0, %xmm1, %xmm1
	vaddsd	%xmm4, %xmm5, %xmm5
	vaddsd	%xmm11, %xmm4, %xmm4
	vsubsd	%xmm9, %xmm5, %xmm5
	vmulsd	%xmm2, %xmm6, %xmm9
	vmulsd	%xmm0, %xmm6, %xmm6
	vcvtsd2ss	%xmm5, %xmm5, %xmm5
	vaddss	-84(%rbp), %xmm5, %xmm5
	vaddsd	%xmm9, %xmm4, %xmm4
	vmovss	%xmm5, 60(%rbx)
	vmulsd	%xmm3, %xmm10, %xmm5
	vaddsd	%xmm9, %xmm1, %xmm1
	vsubsd	%xmm5, %xmm4, %xmm4
	vxorpd	%xmm5, %xmm5, %xmm5
	vcvtsd2ss	%xmm4, %xmm4, %xmm4
	vaddss	-80(%rbp), %xmm4, %xmm4
	vmovss	%xmm4, 68(%rbx)
	vmulsd	%xmm2, %xmm10, %xmm4
	vcvtss2sd	-132(%rbp), %xmm5, %xmm5
	vmulsd	%xmm3, %xmm5, %xmm9
	vmulsd	%xmm2, %xmm5, %xmm11
	vmulsd	%xmm0, %xmm10, %xmm10
	vmulsd	%xmm0, %xmm5, %xmm5
	vaddsd	%xmm4, %xmm1, %xmm1
	vaddsd	%xmm6, %xmm4, %xmm4
	vsubsd	%xmm9, %xmm1, %xmm1
	vaddsd	%xmm11, %xmm4, %xmm6
	vaddsd	%xmm11, %xmm10, %xmm10
	vcvtsd2ss	%xmm1, %xmm1, %xmm1
	vaddss	-76(%rbp), %xmm1, %xmm1
	vmovss	%xmm1, 76(%rbx)
	vxorpd	%xmm1, %xmm1, %xmm1
	vcvtss2sd	-128(%rbp), %xmm1, %xmm1
	vmulsd	%xmm3, %xmm1, %xmm4
	vmulsd	%xmm2, %xmm1, %xmm9
	vmulsd	%xmm0, %xmm1, %xmm0
	vmulsd	.LC28(%rip), %xmm1, %xmm1
	vsubsd	%xmm4, %xmm6, %xmm6
	vaddsd	%xmm9, %xmm10, %xmm10
	vaddsd	%xmm9, %xmm5, %xmm5
	vcvtsd2ss	%xmm6, %xmm6, %xmm6
	vaddss	-72(%rbp), %xmm6, %xmm6
	vmovss	%xmm6, 84(%rbx)
	vxorpd	%xmm6, %xmm6, %xmm6
	vcvtss2sd	-124(%rbp), %xmm6, %xmm6
	vmulsd	%xmm3, %xmm6, %xmm11
	vsubsd	%xmm11, %xmm10, %xmm10
	vcvtsd2ss	%xmm10, %xmm10, %xmm10
	vaddss	-68(%rbp), %xmm10, %xmm10
	vmovss	%xmm10, 92(%rbx)
	vmulsd	%xmm2, %xmm6, %xmm10
	vaddsd	%xmm10, %xmm5, %xmm9
	vxorpd	%xmm5, %xmm5, %xmm5
	vcvtss2sd	-120(%rbp), %xmm5, %xmm5
	vmulsd	%xmm2, %xmm5, %xmm2
	vaddsd	%xmm10, %xmm0, %xmm0
	vmulsd	%xmm3, %xmm5, %xmm11
	vmulsd	%xmm8, %xmm5, %xmm8
	vaddsd	%xmm2, %xmm0, %xmm0
	vxorpd	%xmm2, %xmm2, %xmm2
	vcvtss2sd	-116(%rbp), %xmm2, %xmm2
	vmulsd	%xmm3, %xmm2, %xmm3
	vsubsd	%xmm11, %xmm9, %xmm9
	vcvtsd2ss	%xmm9, %xmm9, %xmm9
	vaddss	-64(%rbp), %xmm9, %xmm9
	vsubsd	%xmm3, %xmm0, %xmm0
	vmovsd	.LC30(%rip), %xmm3
	vmovss	%xmm9, 100(%rbx)
	vcvtsd2ss	%xmm0, %xmm0, %xmm0
	vaddss	-60(%rbp), %xmm0, %xmm0
	vmovss	%xmm0, 108(%rbx)
	vmulsd	%xmm7, %xmm6, %xmm0
	vmulsd	.LC29(%rip), %xmm6, %xmm6
	vmulsd	%xmm7, %xmm2, %xmm7
	vsubsd	%xmm0, %xmm4, %xmm4
	vmulsd	%xmm3, %xmm5, %xmm0
	vaddsd	%xmm6, %xmm1, %xmm1
	vaddsd	%xmm8, %xmm4, %xmm4
	vsubsd	%xmm0, %xmm1, %xmm1
	vmulsd	%xmm3, %xmm2, %xmm0
	vaddsd	%xmm7, %xmm4, %xmm7
	vcvtsd2ss	%xmm7, %xmm7, %xmm7
	vaddss	-56(%rbp), %xmm7, %xmm7
	vaddsd	%xmm0, %xmm1, %xmm0
	vmovss	%xmm7, 116(%rbx)
	vcvtsd2ss	%xmm0, %xmm0, %xmm0
	vaddss	-52(%rbp), %xmm0, %xmm0
	vmovss	%xmm0, 124(%rbx)
	jmp	.L558
	.cfi_endproc
.LFE1535:
	.size	_ZN18WaveletsOnInterval3WI49transformILi32ELb0EEEvPfi, .-_ZN18WaveletsOnInterval3WI49transformILi32ELb0EEEvPfi
	.section	.text.unlikely._ZN18WaveletsOnInterval3WI49transformILi32ELb0EEEvPfi,"axG",@progbits,_ZN18WaveletsOnInterval3WI49transformILi32ELb0EEEvPfi,comdat
.LCOLDE42:
	.section	.text._ZN18WaveletsOnInterval3WI49transformILi32ELb0EEEvPfi,"axG",@progbits,_ZN18WaveletsOnInterval3WI49transformILi32ELb0EEEvPfi,comdat
.LHOTE42:
	.section	.text.unlikely._ZN18WaveletsOnInterval3WI49transformILi256ELb1EEEvPfi,"axG",@progbits,_ZN18WaveletsOnInterval3WI49transformILi256ELb1EEEvPfi,comdat
.LCOLDB43:
	.section	.text._ZN18WaveletsOnInterval3WI49transformILi256ELb1EEEvPfi,"axG",@progbits,_ZN18WaveletsOnInterval3WI49transformILi256ELb1EEEvPfi,comdat
.LHOTB43:
	.p2align 4,,15
	.weak	_ZN18WaveletsOnInterval3WI49transformILi256ELb1EEEvPfi
	.type	_ZN18WaveletsOnInterval3WI49transformILi256ELb1EEEvPfi, @function
_ZN18WaveletsOnInterval3WI49transformILi256ELb1EEEvPfi:
.LFB1573:
	.cfi_startproc
	leaq	8(%rsp), %r10
	.cfi_def_cfa 10, 0
	andq	$-32, %rsp
	movq	%rdi, %rcx
	pushq	-8(%r10)
	pushq	%rbp
	leal	-1(%rsi), %eax
	.cfi_escape 0x10,0x6,0x2,0x76,0
	movq	%rsp, %rbp
	pushq	%r12
	pushq	%r10
	.cfi_escape 0xf,0x3,0x76,0x70,0x6
	.cfi_escape 0x10,0xc,0x2,0x76,0x78
	pushq	%rbx
	subq	$1048, %rsp
	.cfi_escape 0x10,0x3,0x2,0x76,0x68
	cmpl	$1, %eax
	jbe	.L587
	vmovaps	.LC32(%rip), %ymm12
	leaq	-1072(%rbp), %rbx
	xorl	%eax, %eax
	.p2align 4,,10
	.p2align 3
.L574:
	vmovups	(%rcx,%rax,2), %ymm2
	vmovups	32(%rcx,%rax,2), %ymm4
	vshufps	$136, %ymm4, %ymm2, %ymm3
	vshufps	$221, %ymm4, %ymm2, %ymm2
	vperm2f128	$3, %ymm3, %ymm3, %ymm1
	vshufps	$68, %ymm1, %ymm3, %ymm0
	vshufps	$238, %ymm1, %ymm3, %ymm1
	vinsertf128	$1, %xmm1, %ymm0, %ymm1
	vperm2f128	$3, %ymm2, %ymm2, %ymm0
	vshufps	$68, %ymm0, %ymm2, %ymm3
	vshufps	$238, %ymm0, %ymm2, %ymm0
	vinsertf128	$1, %xmm0, %ymm3, %ymm0
	vaddps	%ymm0, %ymm1, %ymm0
	vmulps	%ymm12, %ymm0, %ymm0
	vmovaps	%ymm0, (%rbx,%rax)
	addq	$32, %rax
	cmpq	$512, %rax
	jne	.L574
	vxorpd	%xmm4, %xmm4, %xmm4
	vxorpd	%xmm0, %xmm0, %xmm0
	vcvtss2sd	-1072(%rbp), %xmm4, %xmm4
	vcvtss2sd	-1068(%rbp), %xmm0, %xmm0
	vmulsd	.LC35(%rip), %xmm4, %xmm1
	vxorpd	%xmm2, %xmm2, %xmm2
	vcvtss2sd	-1064(%rbp), %xmm2, %xmm2
	xorw	%ax, %ax
	vmovsd	.LC34(%rip), %xmm14
	leaq	-560(%rbp), %r12
	vmovss	.LC37(%rip), %xmm15
	leaq	8(%rbx), %r8
	vmovapd	.LC38(%rip), %ymm11
	vmulsd	%xmm14, %xmm2, %xmm2
	vmovapd	.LC39(%rip), %ymm13
	leaq	4(%rbx), %rdi
	vmulsd	.LC33(%rip), %xmm0, %xmm5
	vmovss	4(%rcx), %xmm0
	leaq	4(%r12), %rdx
	vmulsd	.LC36(%rip), %xmm4, %xmm4
	vsubss	(%rcx), %xmm0, %xmm3
	vaddsd	%xmm5, %xmm1, %xmm1
	vsubsd	%xmm5, %xmm4, %xmm0
	vsubsd	%xmm2, %xmm1, %xmm1
	vaddsd	%xmm0, %xmm2, %xmm2
	vcvtsd2ss	%xmm1, %xmm1, %xmm1
	vcvtsd2ss	%xmm2, %xmm2, %xmm2
	vsubss	%xmm2, %xmm1, %xmm0
	vsubss	%xmm0, %xmm3, %xmm0
	vmulss	%xmm15, %xmm0, %xmm0
	vmovss	%xmm0, -560(%rbp)
	.p2align 4,,10
	.p2align 3
.L579:
	vmovups	40(%rcx,%rax,2), %ymm9
	vmovups	(%rdi,%rax), %ymm2
	vmovups	8(%rcx,%rax,2), %ymm8
	vmovaps	(%rbx,%rax), %ymm5
	vcvtps2pd	%xmm2, %ymm1
	vextractf128	$0x1, %ymm2, %xmm0
	vcvtps2pd	%xmm0, %ymm0
	vshufps	$221, %ymm9, %ymm8, %ymm10
	vshufps	$136, %ymm9, %ymm8, %ymm8
	vperm2f128	$3, %ymm10, %ymm10, %ymm2
	vshufps	$68, %ymm2, %ymm10, %ymm3
	vcvtps2pd	%xmm5, %ymm7
	vperm2f128	$3, %ymm8, %ymm8, %ymm9
	vextractf128	$0x1, %ymm5, %xmm5
	vcvtps2pd	%xmm5, %ymm5
	vshufps	$238, %ymm2, %ymm10, %ymm2
	vinsertf128	$1, %xmm2, %ymm3, %ymm2
	vshufps	$68, %ymm9, %ymm8, %ymm3
	vshufps	$238, %ymm9, %ymm8, %ymm9
	vmulpd	%ymm13, %ymm7, %ymm8
	vinsertf128	$1, %xmm9, %ymm3, %ymm3
	vaddpd	%ymm1, %ymm8, %ymm8
	vmulpd	%ymm11, %ymm7, %ymm7
	vsubps	%ymm3, %ymm2, %ymm3
	vmulpd	%ymm13, %ymm5, %ymm2
	vmulpd	%ymm11, %ymm5, %ymm5
	vmovups	(%r8,%rax), %ymm4
	vaddpd	%ymm0, %ymm2, %ymm2
	vaddpd	%ymm7, %ymm1, %ymm1
	vcvtps2pd	%xmm4, %ymm6
	vextractf128	$0x1, %ymm4, %xmm4
	vmulpd	%ymm11, %ymm6, %ymm6
	vaddpd	%ymm5, %ymm0, %ymm0
	vcvtps2pd	%xmm4, %ymm4
	vmulpd	%ymm11, %ymm4, %ymm4
	vaddpd	%ymm6, %ymm8, %ymm8
	vaddpd	%ymm4, %ymm2, %ymm2
	vsubpd	%ymm6, %ymm1, %ymm1
	vsubpd	%ymm4, %ymm0, %ymm0
	vcvtpd2psy	%ymm8, %xmm8
	vcvtpd2psy	%ymm2, %xmm2
	vinsertf128	$0x1, %xmm2, %ymm8, %ymm2
	vcvtpd2psy	%ymm1, %xmm1
	vcvtpd2psy	%ymm0, %xmm0
	vinsertf128	$0x1, %xmm0, %ymm1, %ymm0
	vsubps	%ymm0, %ymm2, %ymm0
	vsubps	%ymm0, %ymm3, %ymm3
	vmulps	%ymm12, %ymm3, %ymm3
	vmovups	%ymm3, (%rdx,%rax)
	addq	$32, %rax
	cmpq	$480, %rax
	jne	.L579
	vxorpd	%xmm1, %xmm1, %xmm1
	vcvtss2sd	-592(%rbp), %xmm1, %xmm1
	vxorpd	%xmm2, %xmm2, %xmm2
	vcvtss2sd	-584(%rbp), %xmm2, %xmm2
	vmulsd	%xmm14, %xmm2, %xmm6
	vxorpd	%xmm0, %xmm0, %xmm0
	vcvtss2sd	-588(%rbp), %xmm0, %xmm0
	vxorps	%xmm5, %xmm5, %xmm5
	vmovsd	.LC40(%rip), %xmm4
	movl	$512, %edx
	movq	%rbx, %rsi
	movq	%rcx, %rdi
	vmovss	972(%rcx), %xmm3
	vsubss	968(%rcx), %xmm3, %xmm7
	vmulsd	%xmm4, %xmm1, %xmm3
	vaddsd	%xmm0, %xmm3, %xmm3
	vaddsd	%xmm6, %xmm3, %xmm3
	vcvtsd2ss	%xmm3, %xmm5, %xmm5
	vmulsd	%xmm14, %xmm1, %xmm3
	vaddsd	%xmm3, %xmm0, %xmm1
	vsubsd	%xmm6, %xmm1, %xmm3
	vxorps	%xmm1, %xmm1, %xmm1
	vcvtsd2ss	%xmm3, %xmm1, %xmm1
	vsubss	%xmm1, %xmm5, %xmm1
	vmovss	980(%rcx), %xmm3
	vxorps	%xmm5, %xmm5, %xmm5
	vsubss	976(%rcx), %xmm3, %xmm8
	vmulsd	%xmm4, %xmm0, %xmm3
	vsubss	%xmm1, %xmm7, %xmm1
	vmulss	%xmm15, %xmm1, %xmm1
	vaddsd	%xmm3, %xmm2, %xmm3
	vmovss	%xmm1, -76(%rbp)
	vxorpd	%xmm1, %xmm1, %xmm1
	vcvtss2sd	-580(%rbp), %xmm1, %xmm1
	vmulsd	%xmm14, %xmm1, %xmm7
	vaddsd	%xmm1, %xmm6, %xmm6
	vaddsd	%xmm7, %xmm3, %xmm3
	vcvtsd2ss	%xmm3, %xmm5, %xmm5
	vmulsd	%xmm14, %xmm0, %xmm3
	vaddsd	%xmm3, %xmm2, %xmm0
	vsubsd	%xmm7, %xmm0, %xmm3
	vxorps	%xmm0, %xmm0, %xmm0
	vcvtsd2ss	%xmm3, %xmm0, %xmm0
	vsubss	%xmm0, %xmm5, %xmm0
	vmovss	988(%rcx), %xmm3
	vsubss	%xmm0, %xmm8, %xmm0
	vsubss	984(%rcx), %xmm3, %xmm8
	vmulsd	%xmm4, %xmm2, %xmm3
	vmulss	%xmm15, %xmm0, %xmm0
	vaddsd	%xmm3, %xmm1, %xmm3
	vmovss	%xmm0, -72(%rbp)
	vxorpd	%xmm0, %xmm0, %xmm0
	vcvtss2sd	-576(%rbp), %xmm0, %xmm0
	vmulsd	%xmm14, %xmm0, %xmm5
	vaddsd	%xmm7, %xmm0, %xmm7
	vaddsd	%xmm5, %xmm3, %xmm3
	vsubsd	%xmm5, %xmm6, %xmm6
	vcvtsd2ss	%xmm3, %xmm3, %xmm3
	vcvtsd2ss	%xmm6, %xmm6, %xmm6
	vsubss	%xmm6, %xmm3, %xmm2
	vmovss	996(%rcx), %xmm6
	vxorpd	%xmm3, %xmm3, %xmm3
	vcvtss2sd	-572(%rbp), %xmm3, %xmm3
	vaddsd	%xmm5, %xmm3, %xmm5
	vsubss	%xmm2, %xmm8, %xmm2
	vsubss	992(%rcx), %xmm6, %xmm8
	vmulsd	%xmm4, %xmm1, %xmm6
	vmulss	%xmm15, %xmm2, %xmm2
	vaddsd	%xmm0, %xmm6, %xmm6
	vmovss	%xmm2, -68(%rbp)
	vmulsd	%xmm14, %xmm3, %xmm2
	vaddsd	%xmm2, %xmm6, %xmm6
	vsubsd	%xmm2, %xmm7, %xmm7
	vcvtsd2ss	%xmm6, %xmm6, %xmm6
	vcvtsd2ss	%xmm7, %xmm7, %xmm7
	vsubss	%xmm7, %xmm6, %xmm1
	vxorpd	%xmm6, %xmm6, %xmm6
	vcvtss2sd	-568(%rbp), %xmm6, %xmm6
	vmulsd	%xmm14, %xmm6, %xmm7
	vsubss	%xmm1, %xmm8, %xmm1
	vmulss	%xmm15, %xmm1, %xmm1
	vsubsd	%xmm7, %xmm5, %xmm5
	vcvtsd2ss	%xmm5, %xmm5, %xmm5
	vmovss	%xmm1, -64(%rbp)
	vmovss	1004(%rcx), %xmm1
	vsubss	1000(%rcx), %xmm1, %xmm8
	vmulsd	%xmm4, %xmm0, %xmm1
	vaddsd	%xmm3, %xmm1, %xmm1
	vaddsd	%xmm7, %xmm1, %xmm1
	vcvtsd2ss	%xmm1, %xmm1, %xmm1
	vsubss	%xmm5, %xmm1, %xmm0
	vmulsd	%xmm4, %xmm3, %xmm1
	vxorpd	%xmm5, %xmm5, %xmm5
	vcvtss2sd	-564(%rbp), %xmm5, %xmm5
	vmulsd	%xmm14, %xmm5, %xmm14
	vaddsd	%xmm2, %xmm6, %xmm4
	vsubss	%xmm0, %xmm8, %xmm0
	vaddsd	%xmm6, %xmm1, %xmm3
	vmulsd	.LC33(%rip), %xmm6, %xmm6
	vmulss	%xmm15, %xmm0, %xmm0
	vsubsd	%xmm14, %xmm4, %xmm4
	vaddsd	%xmm14, %xmm3, %xmm3
	vcvtsd2ss	%xmm4, %xmm4, %xmm4
	vmovss	%xmm0, -60(%rbp)
	vmovss	1012(%rcx), %xmm0
	vsubsd	%xmm6, %xmm2, %xmm2
	vsubss	1008(%rcx), %xmm0, %xmm0
	vcvtsd2ss	%xmm3, %xmm3, %xmm3
	vsubss	%xmm4, %xmm3, %xmm3
	vaddsd	%xmm1, %xmm6, %xmm6
	vsubss	%xmm3, %xmm0, %xmm0
	vmulss	%xmm15, %xmm0, %xmm0
	vmovss	%xmm0, -56(%rbp)
	vmovss	1020(%rcx), %xmm0
	vsubss	1016(%rcx), %xmm0, %xmm7
	vmulsd	.LC36(%rip), %xmm5, %xmm0
	vaddsd	%xmm0, %xmm2, %xmm2
	vmulsd	.LC35(%rip), %xmm5, %xmm0
	vcvtsd2ss	%xmm2, %xmm2, %xmm2
	vaddsd	%xmm0, %xmm6, %xmm1
	vxorps	%xmm0, %xmm0, %xmm0
	vcvtsd2ss	%xmm1, %xmm0, %xmm0
	vsubss	%xmm0, %xmm2, %xmm0
	vsubss	%xmm0, %xmm7, %xmm0
	vmulss	%xmm15, %xmm0, %xmm0
	vmovss	%xmm0, -52(%rbp)
	call	memcpy
	movl	$512, %edx
	movq	%r12, %rsi
	leaq	512(%rax), %rdi
	call	memcpy
.L573:
	addq	$1048, %rsp
	popq	%rbx
	popq	%r10
	.cfi_remember_state
	.cfi_def_cfa 10, 0
	popq	%r12
	popq	%rbp
	leaq	-8(%r10), %rsp
	.cfi_def_cfa 7, 8
	ret
	.p2align 4,,10
	.p2align 3
.L587:
	.cfi_restore_state
	vxorpd	%xmm0, %xmm0, %xmm0
	vxorpd	%xmm1, %xmm1, %xmm1
	vcvtss2sd	(%rcx), %xmm0, %xmm0
	vcvtss2sd	8(%rcx), %xmm1, %xmm1
	vmovsd	.LC20(%rip), %xmm9
	leaq	-1072(%rbp), %rbx
	vmovsd	.LC21(%rip), %xmm10
	leaq	8(%rdi), %rax
	vmovsd	.LC22(%rip), %xmm8
	vmulsd	%xmm9, %xmm0, %xmm0
	vmovapd	.LC23(%rip), %ymm7
	vmulsd	%xmm10, %xmm1, %xmm1
	vmovapd	.LC24(%rip), %ymm5
	leaq	4(%rbx), %rdx
	vmovapd	.LC25(%rip), %ymm6
	vaddsd	%xmm1, %xmm0, %xmm0
	vxorpd	%xmm1, %xmm1, %xmm1
	vcvtss2sd	16(%rcx), %xmm1, %xmm1
	vmulsd	%xmm9, %xmm1, %xmm1
	vsubsd	%xmm1, %xmm0, %xmm0
	vxorpd	%xmm1, %xmm1, %xmm1
	vcvtss2sd	24(%rcx), %xmm1, %xmm1
	vmulsd	%xmm8, %xmm1, %xmm1
	vaddsd	%xmm1, %xmm0, %xmm0
	vmovss	4(%rdi), %xmm1
	leaq	484(%rbx), %rdi
	vcvtsd2ss	%xmm0, %xmm0, %xmm0
	vsubss	%xmm0, %xmm1, %xmm0
	vmovss	%xmm0, -1072(%rbp)
	.p2align 4,,10
	.p2align 3
.L575:
	vmovups	32(%rax), %ymm4
	addq	$32, %rdx
	addq	$64, %rax
	vmovups	-64(%rax), %ymm2
	vshufps	$136, %ymm4, %ymm2, %ymm3
	vshufps	$221, %ymm4, %ymm2, %ymm2
	vperm2f128	$3, %ymm3, %ymm3, %ymm0
	vshufps	$68, %ymm0, %ymm3, %ymm1
	vshufps	$238, %ymm0, %ymm3, %ymm0
	vinsertf128	$1, %xmm0, %ymm1, %ymm1
	vmovups	-48(%rax), %ymm0
	vshufps	$136, -16(%rax), %ymm0, %ymm0
	vperm2f128	$3, %ymm0, %ymm0, %ymm3
	vshufps	$68, %ymm3, %ymm0, %ymm11
	vshufps	$238, %ymm3, %ymm0, %ymm3
	vmovups	-56(%rax), %ymm0
	vinsertf128	$1, %xmm3, %ymm11, %ymm11
	vshufps	$136, -24(%rax), %ymm0, %ymm0
	vperm2f128	$3, %ymm0, %ymm0, %ymm3
	vshufps	$68, %ymm3, %ymm0, %ymm12
	vshufps	$238, %ymm3, %ymm0, %ymm3
	vinsertf128	$1, %xmm3, %ymm12, %ymm12
	vmovups	-72(%rax), %ymm3
	vshufps	$136, -40(%rax), %ymm3, %ymm3
	vperm2f128	$3, %ymm3, %ymm3, %ymm0
	vshufps	$68, %ymm0, %ymm3, %ymm13
	vshufps	$238, %ymm0, %ymm3, %ymm0
	vperm2f128	$3, %ymm2, %ymm2, %ymm3
	vinsertf128	$1, %xmm0, %ymm13, %ymm0
	vshufps	$68, %ymm3, %ymm2, %ymm4
	vcvtps2pd	%xmm0, %ymm13
	vshufps	$238, %ymm3, %ymm2, %ymm3
	vcvtps2pd	%xmm1, %ymm2
	vinsertf128	$1, %xmm3, %ymm4, %ymm4
	vmulpd	%ymm5, %ymm2, %ymm2
	vmulpd	%ymm7, %ymm13, %ymm3
	vaddpd	%ymm2, %ymm3, %ymm13
	vcvtps2pd	%xmm12, %ymm3
	vmulpd	%ymm5, %ymm3, %ymm3
	vextractf128	$0x1, %ymm0, %xmm0
	vextractf128	$0x1, %ymm1, %xmm1
	vcvtps2pd	%xmm0, %ymm0
	vcvtps2pd	%xmm1, %ymm1
	vmulpd	%ymm7, %ymm0, %ymm0
	vmulpd	%ymm5, %ymm1, %ymm1
	vaddpd	%ymm3, %ymm13, %ymm2
	vcvtps2pd	%xmm11, %ymm3
	vmulpd	%ymm6, %ymm3, %ymm3
	vsubpd	%ymm3, %ymm2, %ymm3
	vaddpd	%ymm1, %ymm0, %ymm2
	vextractf128	$0x1, %ymm12, %xmm0
	vcvtps2pd	%xmm0, %ymm0
	vmulpd	%ymm5, %ymm0, %ymm0
	vcvtpd2psy	%ymm3, %xmm3
	vaddpd	%ymm0, %ymm2, %ymm1
	vextractf128	$0x1, %ymm11, %xmm0
	vcvtps2pd	%xmm0, %ymm0
	vmulpd	%ymm6, %ymm0, %ymm0
	vsubpd	%ymm0, %ymm1, %ymm0
	vcvtpd2psy	%ymm0, %xmm0
	vinsertf128	$0x1, %xmm0, %ymm3, %ymm0
	vsubps	%ymm0, %ymm4, %ymm0
	vmovups	%ymm0, -32(%rdx)
	cmpq	%rdi, %rdx
	jne	.L575
	vxorpd	%xmm3, %xmm3, %xmm3
	vxorpd	%xmm1, %xmm1, %xmm1
	vcvtss2sd	968(%rcx), %xmm3, %xmm3
	vcvtss2sd	960(%rcx), %xmm1, %xmm1
	vmovsd	.LC26(%rip), %xmm5
	vxorpd	%xmm2, %xmm2, %xmm2
	vcvtss2sd	976(%rcx), %xmm2, %xmm2
	vxorpd	%xmm6, %xmm6, %xmm6
	vmovsd	.LC27(%rip), %xmm0
	vcvtss2sd	984(%rcx), %xmm6, %xmm6
	vmulsd	%xmm5, %xmm3, %xmm7
	vmulsd	%xmm0, %xmm1, %xmm1
	vmulsd	%xmm5, %xmm2, %xmm4
	vmulsd	%xmm0, %xmm3, %xmm3
	vmulsd	%xmm5, %xmm6, %xmm11
	vmulsd	%xmm0, %xmm2, %xmm2
	vaddsd	%xmm7, %xmm1, %xmm1
	vmulsd	%xmm8, %xmm6, %xmm7
	vmulsd	%xmm0, %xmm6, %xmm6
	vaddsd	%xmm4, %xmm3, %xmm3
	vaddsd	%xmm4, %xmm1, %xmm1
	vaddsd	%xmm11, %xmm2, %xmm2
	vaddsd	%xmm11, %xmm3, %xmm3
	vsubsd	%xmm7, %xmm1, %xmm1
	vmovss	972(%rcx), %xmm7
	vcvtsd2ss	%xmm1, %xmm1, %xmm1
	vsubss	%xmm1, %xmm7, %xmm1
	vmovss	980(%rcx), %xmm7
	vmovss	%xmm1, -588(%rbp)
	vxorpd	%xmm1, %xmm1, %xmm1
	vcvtss2sd	992(%rcx), %xmm1, %xmm1
	vmulsd	%xmm8, %xmm1, %xmm4
	vmulsd	%xmm0, %xmm1, %xmm0
	vsubsd	%xmm4, %xmm3, %xmm3
	vcvtsd2ss	%xmm3, %xmm3, %xmm3
	vsubss	%xmm3, %xmm7, %xmm3
	vmulsd	%xmm5, %xmm1, %xmm7
	vmulsd	.LC28(%rip), %xmm1, %xmm1
	vmovss	%xmm3, -584(%rbp)
	vxorpd	%xmm3, %xmm3, %xmm3
	vcvtss2sd	1000(%rcx), %xmm3, %xmm3
	vmulsd	%xmm8, %xmm3, %xmm11
	vaddsd	%xmm7, %xmm2, %xmm2
	vaddsd	%xmm6, %xmm7, %xmm7
	vsubsd	%xmm11, %xmm2, %xmm2
	vmovss	988(%rcx), %xmm11
	vcvtsd2ss	%xmm2, %xmm2, %xmm2
	vsubss	%xmm2, %xmm11, %xmm2
	vmulsd	%xmm5, %xmm3, %xmm11
	vmovss	%xmm2, -580(%rbp)
	vxorpd	%xmm2, %xmm2, %xmm2
	vcvtss2sd	1008(%rcx), %xmm2, %xmm2
	vmulsd	%xmm8, %xmm2, %xmm6
	vmulsd	%xmm5, %xmm2, %xmm5
	vaddsd	%xmm11, %xmm7, %xmm7
	vaddsd	%xmm11, %xmm0, %xmm0
	vsubsd	%xmm6, %xmm7, %xmm6
	vmovss	996(%rcx), %xmm7
	vaddsd	%xmm5, %xmm0, %xmm0
	vxorpd	%xmm5, %xmm5, %xmm5
	vcvtss2sd	1016(%rcx), %xmm5, %xmm5
	vmulsd	%xmm8, %xmm5, %xmm8
	vcvtsd2ss	%xmm6, %xmm6, %xmm6
	vsubss	%xmm6, %xmm7, %xmm6
	vsubsd	%xmm8, %xmm0, %xmm0
	vmovss	%xmm6, -576(%rbp)
	vmovss	1004(%rcx), %xmm6
	vcvtsd2ss	%xmm0, %xmm0, %xmm0
	vsubss	%xmm0, %xmm6, %xmm0
	vmovss	%xmm0, -572(%rbp)
	vmulsd	%xmm9, %xmm3, %xmm0
	vmulsd	%xmm9, %xmm5, %xmm9
	vsubsd	%xmm0, %xmm4, %xmm4
	vmulsd	%xmm10, %xmm2, %xmm0
	vaddsd	%xmm0, %xmm4, %xmm0
	vmovss	1012(%rcx), %xmm4
	vaddsd	%xmm9, %xmm0, %xmm0
	vcvtsd2ss	%xmm0, %xmm0, %xmm0
	vsubss	%xmm0, %xmm4, %xmm0
	vmovss	%xmm0, -568(%rbp)
	vmulsd	.LC29(%rip), %xmm3, %xmm0
	vmovsd	.LC30(%rip), %xmm3
	vmulsd	%xmm3, %xmm5, %xmm5
	vaddsd	%xmm0, %xmm1, %xmm1
	vmulsd	%xmm3, %xmm2, %xmm0
	vsubsd	%xmm0, %xmm1, %xmm0
	vmovss	1020(%rcx), %xmm1
	vaddsd	%xmm5, %xmm0, %xmm0
	vcvtsd2ss	%xmm0, %xmm0, %xmm0
	vsubss	%xmm0, %xmm1, %xmm0
	vmovss	%xmm0, -564(%rbp)
	vmovups	(%rcx), %ymm0
	vshufps	$136, 32(%rcx), %ymm0, %ymm0
	vperm2f128	$3, %ymm0, %ymm0, %ymm1
	vshufps	$68, %ymm1, %ymm0, %ymm2
	vshufps	$238, %ymm1, %ymm0, %ymm1
	vmovups	64(%rcx), %ymm0
	vinsertf128	$1, %xmm1, %ymm2, %ymm1
	vshufps	$136, 96(%rcx), %ymm0, %ymm0
	vmovaps	%ymm1, -560(%rbp)
	vperm2f128	$3, %ymm0, %ymm0, %ymm1
	vshufps	$68, %ymm1, %ymm0, %ymm2
	vshufps	$238, %ymm1, %ymm0, %ymm1
	vinsertf128	$1, %xmm1, %ymm2, %ymm1
	vmovaps	%ymm1, -528(%rbp)
	vmovups	128(%rcx), %ymm0
	vshufps	$136, 160(%rcx), %ymm0, %ymm0
	vperm2f128	$3, %ymm0, %ymm0, %ymm1
	vshufps	$68, %ymm1, %ymm0, %ymm2
	vshufps	$238, %ymm1, %ymm0, %ymm1
	vmovups	192(%rcx), %ymm0
	vinsertf128	$1, %xmm1, %ymm2, %ymm1
	vshufps	$136, 224(%rcx), %ymm0, %ymm0
	vmovaps	%ymm1, -496(%rbp)
	vperm2f128	$3, %ymm0, %ymm0, %ymm1
	vshufps	$68, %ymm1, %ymm0, %ymm2
	vshufps	$238, %ymm1, %ymm0, %ymm1
	vmovups	256(%rcx), %ymm0
	vshufps	$136, 288(%rcx), %ymm0, %ymm0
	vinsertf128	$1, %xmm1, %ymm2, %ymm1
	vmovaps	%ymm1, -464(%rbp)
	vperm2f128	$3, %ymm0, %ymm0, %ymm1
	vshufps	$68, %ymm1, %ymm0, %ymm2
	vshufps	$238, %ymm1, %ymm0, %ymm1
	vinsertf128	$1, %xmm1, %ymm2, %ymm1
	vmovups	320(%rcx), %ymm0
	vmovaps	%ymm1, -432(%rbp)
	vshufps	$136, 352(%rcx), %ymm0, %ymm0
	vperm2f128	$3, %ymm0, %ymm0, %ymm1
	vshufps	$68, %ymm1, %ymm0, %ymm2
	vshufps	$238, %ymm1, %ymm0, %ymm1
	vmovups	384(%rcx), %ymm0
	vinsertf128	$1, %xmm1, %ymm2, %ymm1
	vshufps	$136, 416(%rcx), %ymm0, %ymm0
	vmovaps	%ymm1, -400(%rbp)
	vperm2f128	$3, %ymm0, %ymm0, %ymm1
	vshufps	$68, %ymm1, %ymm0, %ymm2
	vshufps	$238, %ymm1, %ymm0, %ymm1
	vmovups	448(%rcx), %ymm0
	vinsertf128	$1, %xmm1, %ymm2, %ymm1
	vshufps	$136, 480(%rcx), %ymm0, %ymm0
	vmovaps	%ymm1, -368(%rbp)
	vperm2f128	$3, %ymm0, %ymm0, %ymm1
	vshufps	$68, %ymm1, %ymm0, %ymm2
	vshufps	$238, %ymm1, %ymm0, %ymm1
	vmovups	512(%rcx), %ymm0
	vshufps	$136, 544(%rcx), %ymm0, %ymm0
	vinsertf128	$1, %xmm1, %ymm2, %ymm1
	vmovaps	%ymm1, -336(%rbp)
	vperm2f128	$3, %ymm0, %ymm0, %ymm1
	vshufps	$68, %ymm1, %ymm0, %ymm2
	vshufps	$238, %ymm1, %ymm0, %ymm1
	vinsertf128	$1, %xmm1, %ymm2, %ymm1
	vmovups	576(%rcx), %ymm0
	vmovaps	%ymm1, -304(%rbp)
	vshufps	$136, 608(%rcx), %ymm0, %ymm0
	vperm2f128	$3, %ymm0, %ymm0, %ymm1
	vshufps	$68, %ymm1, %ymm0, %ymm2
	vshufps	$238, %ymm1, %ymm0, %ymm1
	vmovups	640(%rcx), %ymm0
	vinsertf128	$1, %xmm1, %ymm2, %ymm1
	vshufps	$136, 672(%rcx), %ymm0, %ymm0
	vmovaps	%ymm1, -272(%rbp)
	vperm2f128	$3, %ymm0, %ymm0, %ymm1
	vshufps	$68, %ymm1, %ymm0, %ymm2
	vshufps	$238, %ymm1, %ymm0, %ymm1
	vmovups	704(%rcx), %ymm0
	vinsertf128	$1, %xmm1, %ymm2, %ymm1
	vshufps	$136, 736(%rcx), %ymm0, %ymm0
	vmovaps	%ymm1, -240(%rbp)
	vperm2f128	$3, %ymm0, %ymm0, %ymm1
	vshufps	$68, %ymm1, %ymm0, %ymm2
	vshufps	$238, %ymm1, %ymm0, %ymm1
	vmovups	768(%rcx), %ymm0
	vshufps	$136, 800(%rcx), %ymm0, %ymm0
	vinsertf128	$1, %xmm1, %ymm2, %ymm1
	vmovaps	%ymm1, -208(%rbp)
	vperm2f128	$3, %ymm0, %ymm0, %ymm1
	vshufps	$68, %ymm1, %ymm0, %ymm2
	vshufps	$238, %ymm1, %ymm0, %ymm1
	vinsertf128	$1, %xmm1, %ymm2, %ymm1
	vmovaps	%ymm1, -176(%rbp)
	vmovups	832(%rcx), %ymm0
	vshufps	$136, 864(%rcx), %ymm0, %ymm0
	vperm2f128	$3, %ymm0, %ymm0, %ymm1
	vshufps	$68, %ymm1, %ymm0, %ymm2
	vshufps	$238, %ymm1, %ymm0, %ymm1
	vmovups	896(%rcx), %ymm0
	vinsertf128	$1, %xmm1, %ymm2, %ymm1
	vshufps	$136, 928(%rcx), %ymm0, %ymm0
	vmovaps	%ymm1, -144(%rbp)
	vperm2f128	$3, %ymm0, %ymm0, %ymm1
	vshufps	$68, %ymm1, %ymm0, %ymm2
	vshufps	$238, %ymm1, %ymm0, %ymm1
	vmovss	960(%rcx), %xmm0
	vinsertf128	$1, %xmm1, %ymm2, %ymm1
	vmovaps	%ymm1, -112(%rbp)
	vmovss	%xmm0, -80(%rbp)
	vmovss	968(%rcx), %xmm0
	vmovss	%xmm0, -76(%rbp)
	vmovss	976(%rcx), %xmm0
	vmovss	%xmm0, -72(%rbp)
	vmovss	984(%rcx), %xmm0
	vmovss	%xmm0, -68(%rbp)
	vmovss	992(%rcx), %xmm0
	vmovss	%xmm0, -64(%rbp)
	vmovss	1000(%rcx), %xmm0
	vmovss	%xmm0, -60(%rbp)
	vmovss	1008(%rcx), %xmm0
	vmovss	%xmm0, -56(%rbp)
	vmovss	1016(%rcx), %xmm0
	vmovss	%xmm0, -52(%rbp)
	cmpl	$2, %esi
	jne	.L588
	vmovapd	.LC31(%rip), %ymm4
	leaq	-560(%rbp), %r12
	xorl	%eax, %eax
	.p2align 4,,10
	.p2align 3
.L576:
	vmovaps	(%r12,%rax), %ymm0
	vmovaps	(%rbx,%rax), %ymm2
	vcvtps2pd	%xmm0, %ymm5
	vextractf128	$0x1, %ymm0, %xmm0
	vcvtps2pd	%xmm2, %ymm1
	vmulpd	%ymm4, %ymm1, %ymm1
	vaddpd	%ymm1, %ymm5, %ymm3
	vcvtps2pd	%xmm0, %ymm1
	vextractf128	$0x1, %ymm2, %xmm0
	vcvtps2pd	%xmm0, %ymm0
	vmulpd	%ymm4, %ymm0, %ymm0
	vaddpd	%ymm0, %ymm1, %ymm0
	vcvtpd2psy	%ymm3, %xmm1
	vcvtpd2psy	%ymm0, %xmm0
	vinsertf128	$0x1, %xmm0, %ymm1, %ymm0
	vmovaps	%ymm0, (%r12,%rax)
	addq	$32, %rax
	cmpq	$512, %rax
	jne	.L576
.L578:
	movq	%r12, %rsi
	movq	%rcx, %rdi
	movl	$512, %edx
	call	memcpy
	movl	$512, %edx
	movq	%rbx, %rsi
	leaq	512(%rax), %rdi
	call	memcpy
	jmp	.L573
.L588:
	leaq	-560(%rbp), %r12
	jmp	.L578
	.cfi_endproc
.LFE1573:
	.size	_ZN18WaveletsOnInterval3WI49transformILi256ELb1EEEvPfi, .-_ZN18WaveletsOnInterval3WI49transformILi256ELb1EEEvPfi
	.section	.text.unlikely._ZN18WaveletsOnInterval3WI49transformILi256ELb1EEEvPfi,"axG",@progbits,_ZN18WaveletsOnInterval3WI49transformILi256ELb1EEEvPfi,comdat
.LCOLDE43:
	.section	.text._ZN18WaveletsOnInterval3WI49transformILi256ELb1EEEvPfi,"axG",@progbits,_ZN18WaveletsOnInterval3WI49transformILi256ELb1EEEvPfi,comdat
.LHOTE43:
	.section	.text.unlikely._ZN18WaveletsOnInterval3WI49transformILi16ELb1EEEvPfi,"axG",@progbits,_ZN18WaveletsOnInterval3WI49transformILi16ELb1EEEvPfi,comdat
.LCOLDB50:
	.section	.text._ZN18WaveletsOnInterval3WI49transformILi16ELb1EEEvPfi,"axG",@progbits,_ZN18WaveletsOnInterval3WI49transformILi16ELb1EEEvPfi,comdat
.LHOTB50:
	.p2align 4,,15
	.weak	_ZN18WaveletsOnInterval3WI49transformILi16ELb1EEEvPfi
	.type	_ZN18WaveletsOnInterval3WI49transformILi16ELb1EEEvPfi, @function
_ZN18WaveletsOnInterval3WI49transformILi16ELb1EEEvPfi:
.LFB1606:
	.cfi_startproc
	leaq	8(%rsp), %r10
	.cfi_def_cfa 10, 0
	andq	$-32, %rsp
	pushq	-8(%r10)
	pushq	%rbp
	leal	-1(%rsi), %eax
	.cfi_escape 0x10,0x6,0x2,0x76,0
	movq	%rsp, %rbp
	pushq	%r10
	.cfi_escape 0xf,0x3,0x76,0x78,0x6
	cmpl	$1, %eax
	jbe	.L595
	vmovups	32(%rdi), %ymm4
	vxorpd	%xmm5, %xmm5, %xmm5
	vmovups	(%rdi), %ymm2
	vmovsd	.LC33(%rip), %xmm11
	vmovsd	.LC35(%rip), %xmm9
	vshufps	$136, %ymm4, %ymm2, %ymm3
	vshufps	$221, %ymm4, %ymm2, %ymm2
	vperm2f128	$3, %ymm3, %ymm3, %ymm1
	vshufps	$68, %ymm1, %ymm3, %ymm0
	vshufps	$238, %ymm1, %ymm3, %ymm1
	vmovsd	.LC36(%rip), %xmm10
	vinsertf128	$1, %xmm1, %ymm0, %ymm1
	vperm2f128	$3, %ymm2, %ymm2, %ymm0
	vshufps	$68, %ymm0, %ymm2, %ymm3
	vshufps	$238, %ymm0, %ymm2, %ymm0
	vinsertf128	$1, %xmm0, %ymm3, %ymm0
	vaddps	%ymm0, %ymm1, %ymm0
	vxorpd	%xmm4, %xmm4, %xmm4
	vxorpd	%xmm2, %xmm2, %xmm2
	vmulps	.LC32(%rip), %ymm0, %ymm0
	vmovaps	%ymm0, -80(%rbp)
	vmovss	4(%rdi), %xmm0
	vcvtss2sd	-80(%rbp), %xmm4, %xmm4
	vcvtss2sd	-76(%rbp), %xmm5, %xmm5
	vmulsd	%xmm9, %xmm4, %xmm1
	vcvtss2sd	-72(%rbp), %xmm2, %xmm2
	vmulsd	%xmm11, %xmm5, %xmm5
	vsubss	(%rdi), %xmm0, %xmm3
	vmulsd	%xmm10, %xmm4, %xmm4
	vmovups	24(%rdi), %xmm8
	vmovsd	.LC34(%rip), %xmm12
	vmovss	.LC37(%rip), %xmm7
	vmulsd	%xmm12, %xmm2, %xmm2
	vmovups	8(%rdi), %xmm6
	vmovapd	.LC47(%rip), %xmm13
	vaddsd	%xmm5, %xmm1, %xmm1
	vsubsd	%xmm5, %xmm4, %xmm4
	vxorps	%xmm5, %xmm5, %xmm5
	vsubsd	%xmm2, %xmm1, %xmm1
	vaddsd	%xmm4, %xmm2, %xmm2
	vxorps	%xmm4, %xmm4, %xmm4
	vcvtsd2ss	%xmm1, %xmm1, %xmm1
	vcvtsd2ss	%xmm2, %xmm2, %xmm2
	vsubss	%xmm2, %xmm1, %xmm0
	vmovaps	-80(%rbp), %xmm1
	vcvtps2pd	%xmm1, %xmm15
	vmovhlps	%xmm1, %xmm5, %xmm5
	vxorps	%xmm1, %xmm1, %xmm1
	vsubss	%xmm0, %xmm3, %xmm0
	vmovups	-72(%rbp), %xmm3
	vcvtps2pd	%xmm5, %xmm5
	vmovhlps	%xmm3, %xmm4, %xmm4
	vmulss	%xmm7, %xmm0, %xmm0
	vcvtps2pd	%xmm4, %xmm4
	vmulpd	%xmm13, %xmm4, %xmm4
	vmovss	%xmm0, -48(%rbp)
	vmovups	-76(%rbp), %xmm0
	vcvtps2pd	%xmm0, %xmm2
	vmovhlps	%xmm0, %xmm1, %xmm1
	vcvtps2pd	%xmm3, %xmm0
	vshufps	$221, %xmm8, %xmm6, %xmm3
	vshufps	$136, %xmm8, %xmm6, %xmm6
	vsubps	%xmm6, %xmm3, %xmm8
	vmulpd	%xmm13, %xmm0, %xmm14
	vmovapd	.LC48(%rip), %xmm6
	vcvtps2pd	%xmm1, %xmm1
	vmulpd	%xmm6, %xmm15, %xmm0
	vmulpd	%xmm6, %xmm5, %xmm6
	vaddpd	%xmm2, %xmm0, %xmm0
	vaddpd	%xmm1, %xmm6, %xmm6
	vaddpd	%xmm14, %xmm0, %xmm0
	vaddpd	%xmm4, %xmm6, %xmm6
	vinsertf128	$0x1, %xmm6, %ymm0, %ymm3
	vmulpd	%xmm13, %xmm15, %xmm0
	vcvtpd2psy	%ymm3, %xmm3
	vaddpd	%xmm0, %xmm2, %xmm2
	vsubpd	%xmm14, %xmm2, %xmm0
	vmulpd	%xmm13, %xmm5, %xmm2
	vxorpd	%xmm5, %xmm5, %xmm5
	vcvtss2sd	-64(%rbp), %xmm5, %xmm5
	vaddpd	%xmm2, %xmm1, %xmm2
	vmovss	44(%rdi), %xmm1
	vsubpd	%xmm4, %xmm2, %xmm2
	vxorpd	%xmm4, %xmm4, %xmm4
	vcvtss2sd	-56(%rbp), %xmm4, %xmm4
	vmulsd	%xmm12, %xmm4, %xmm6
	vinsertf128	$0x1, %xmm2, %ymm0, %ymm2
	vcvtpd2psy	%ymm2, %xmm2
	vsubps	%xmm2, %xmm3, %xmm3
	vxorpd	%xmm0, %xmm0, %xmm0
	vcvtss2sd	-60(%rbp), %xmm0, %xmm0
	vsubss	40(%rdi), %xmm1, %xmm2
	vxorps	%xmm1, %xmm1, %xmm1
	vsubps	%xmm3, %xmm8, %xmm8
	vmulps	.LC49(%rip), %xmm8, %xmm8
	vmovsd	.LC40(%rip), %xmm3
	vmovups	%xmm8, -44(%rbp)
	vmulsd	%xmm3, %xmm5, %xmm8
	vmulsd	%xmm3, %xmm0, %xmm3
	vaddsd	%xmm0, %xmm8, %xmm8
	vaddsd	%xmm6, %xmm8, %xmm8
	vcvtsd2ss	%xmm8, %xmm1, %xmm1
	vmulsd	%xmm12, %xmm5, %xmm8
	vaddsd	%xmm8, %xmm0, %xmm5
	vmulsd	%xmm12, %xmm0, %xmm0
	vsubsd	%xmm6, %xmm5, %xmm6
	vxorps	%xmm5, %xmm5, %xmm5
	vaddsd	%xmm0, %xmm4, %xmm8
	vcvtsd2ss	%xmm6, %xmm5, %xmm5
	vsubss	%xmm5, %xmm1, %xmm5
	vmovss	52(%rdi), %xmm1
	vsubss	%xmm5, %xmm2, %xmm5
	vaddsd	%xmm4, %xmm3, %xmm2
	vmulss	%xmm7, %xmm5, %xmm5
	vmovss	%xmm5, -28(%rbp)
	vxorpd	%xmm5, %xmm5, %xmm5
	vcvtss2sd	-52(%rbp), %xmm5, %xmm5
	vmulsd	%xmm12, %xmm5, %xmm6
	vsubss	48(%rdi), %xmm1, %xmm1
	vmulsd	%xmm10, %xmm5, %xmm10
	movq	-80(%rbp), %rax
	movq	-48(%rbp), %rdx
	vaddsd	%xmm6, %xmm2, %xmm2
	vsubsd	%xmm6, %xmm8, %xmm6
	movq	%rax, (%rdi)
	movq	-72(%rbp), %rax
	movq	%rdx, 32(%rdi)
	movq	-40(%rbp), %rdx
	vcvtsd2ss	%xmm2, %xmm2, %xmm2
	vcvtsd2ss	%xmm6, %xmm6, %xmm6
	vsubss	%xmm6, %xmm2, %xmm2
	movq	%rax, 8(%rdi)
	movq	-64(%rbp), %rax
	movq	%rdx, 40(%rdi)
	movq	-32(%rbp), %rdx
	vsubss	%xmm2, %xmm1, %xmm1
	movq	%rax, 16(%rdi)
	movq	-56(%rbp), %rax
	vmulss	%xmm7, %xmm1, %xmm1
	movq	%rdx, 48(%rdi)
	movq	%rax, 24(%rdi)
	vmovss	%xmm1, -24(%rbp)
	vmulsd	%xmm11, %xmm4, %xmm1
	vmovss	60(%rdi), %xmm4
	vsubss	56(%rdi), %xmm4, %xmm4
	vsubsd	%xmm1, %xmm0, %xmm0
	vaddsd	%xmm3, %xmm1, %xmm3
	vmulsd	%xmm9, %xmm5, %xmm1
	vaddsd	%xmm10, %xmm0, %xmm0
	vaddsd	%xmm1, %xmm3, %xmm2
	vcvtsd2ss	%xmm0, %xmm0, %xmm0
	vxorps	%xmm1, %xmm1, %xmm1
	vcvtsd2ss	%xmm2, %xmm1, %xmm1
	vsubss	%xmm1, %xmm0, %xmm1
	vsubss	%xmm1, %xmm4, %xmm1
	vmulss	%xmm7, %xmm1, %xmm1
	vmovss	%xmm1, -20(%rbp)
	movq	-24(%rbp), %rdx
	movq	%rdx, 56(%rdi)
	popq	%r10
	.cfi_remember_state
	.cfi_def_cfa 10, 0
	popq	%rbp
	leaq	-8(%r10), %rsp
	.cfi_def_cfa 7, 8
	ret
	.p2align 4,,10
	.p2align 3
.L595:
	.cfi_restore_state
	vxorpd	%xmm0, %xmm0, %xmm0
	vxorpd	%xmm1, %xmm1, %xmm1
	vcvtss2sd	(%rdi), %xmm0, %xmm0
	vcvtss2sd	8(%rdi), %xmm1, %xmm1
	vmovsd	.LC20(%rip), %xmm8
	leaq	32(%rdi), %rax
	vmovsd	.LC21(%rip), %xmm9
	vmulsd	%xmm8, %xmm0, %xmm0
	vmovups	8(%rdi), %xmm10
	vmulsd	%xmm9, %xmm1, %xmm1
	vmovups	(%rdi), %xmm5
	vmovsd	.LC22(%rip), %xmm2
	vmovapd	.LC45(%rip), %xmm4
	vmovapd	.LC44(%rip), %xmm6
	vaddsd	%xmm1, %xmm0, %xmm0
	vxorpd	%xmm1, %xmm1, %xmm1
	vcvtss2sd	16(%rdi), %xmm1, %xmm1
	vmulsd	%xmm8, %xmm1, %xmm1
	vsubsd	%xmm1, %xmm0, %xmm1
	vxorpd	%xmm0, %xmm0, %xmm0
	vcvtss2sd	24(%rdi), %xmm0, %xmm0
	vmulsd	%xmm2, %xmm0, %xmm0
	vaddsd	%xmm0, %xmm1, %xmm0
	vmovss	4(%rdi), %xmm1
	vcvtsd2ss	%xmm0, %xmm0, %xmm0
	vsubss	%xmm0, %xmm1, %xmm0
	vmovups	16(%rdi), %xmm1
	vshufps	$136, 32(%rdi), %xmm1, %xmm13
	vshufps	$136, %xmm1, %xmm5, %xmm5
	vcvtps2pd	%xmm5, %xmm11
	vxorps	%xmm1, %xmm1, %xmm1
	vmovhlps	%xmm5, %xmm1, %xmm1
	vmovss	%xmm0, -80(%rbp)
	vmovups	24(%rdi), %xmm0
	vshufps	$136, 40(%rdi), %xmm0, %xmm12
	vcvtps2pd	%xmm1, %xmm1
	vmulpd	%xmm6, %xmm1, %xmm7
	vshufps	$136, %xmm0, %xmm10, %xmm14
	vshufps	$221, %xmm0, %xmm10, %xmm10
	vcvtps2pd	%xmm14, %xmm3
	vmulpd	%xmm6, %xmm11, %xmm0
	vmulpd	%xmm4, %xmm3, %xmm3
	vaddpd	%xmm3, %xmm0, %xmm11
	vcvtps2pd	%xmm13, %xmm0
	vmulpd	%xmm4, %xmm0, %xmm0
	vaddpd	%xmm0, %xmm11, %xmm3
	vcvtps2pd	%xmm12, %xmm0
	vmovapd	.LC46(%rip), %xmm11
	vmulpd	%xmm11, %xmm0, %xmm0
	vsubpd	%xmm0, %xmm3, %xmm0
	vxorps	%xmm3, %xmm3, %xmm3
	vmovhlps	%xmm14, %xmm3, %xmm3
	vcvtps2pd	%xmm3, %xmm6
	vmulpd	%xmm4, %xmm6, %xmm6
	vxorps	%xmm3, %xmm3, %xmm3
	vmovhlps	%xmm12, %xmm3, %xmm3
	vcvtps2pd	%xmm3, %xmm3
	vmulpd	%xmm11, %xmm3, %xmm1
	vaddpd	%xmm6, %xmm7, %xmm6
	vxorps	%xmm7, %xmm7, %xmm7
	vmovhlps	%xmm13, %xmm7, %xmm7
	vcvtps2pd	%xmm7, %xmm7
	vmulpd	%xmm4, %xmm7, %xmm4
	vxorpd	%xmm7, %xmm7, %xmm7
	vcvtss2sd	48(%rdi), %xmm7, %xmm7
	vaddpd	%xmm4, %xmm6, %xmm4
	vsubpd	%xmm1, %xmm4, %xmm1
	vmovsd	.LC26(%rip), %xmm4
	vinsertf128	$0x1, %xmm1, %ymm0, %ymm0
	vcvtpd2psy	%ymm0, %xmm0
	vsubps	%xmm0, %xmm10, %xmm0
	vxorpd	%xmm1, %xmm1, %xmm1
	vcvtss2sd	40(%rdi), %xmm1, %xmm1
	vmulsd	%xmm4, %xmm1, %xmm6
	vmulsd	%xmm4, %xmm7, %xmm4
	vmovups	%xmm0, -76(%rbp)
	vxorpd	%xmm0, %xmm0, %xmm0
	vcvtss2sd	32(%rdi), %xmm0, %xmm0
	vmulsd	.LC27(%rip), %xmm0, %xmm3
	vaddsd	%xmm6, %xmm3, %xmm3
	vxorpd	%xmm6, %xmm6, %xmm6
	vcvtss2sd	56(%rdi), %xmm6, %xmm6
	vaddsd	%xmm4, %xmm3, %xmm3
	vmulsd	%xmm2, %xmm6, %xmm4
	vmulsd	%xmm2, %xmm0, %xmm2
	vmulsd	.LC28(%rip), %xmm0, %xmm0
	vsubsd	%xmm4, %xmm3, %xmm3
	vmovss	44(%rdi), %xmm4
	vcvtsd2ss	%xmm3, %xmm3, %xmm3
	vsubss	%xmm3, %xmm4, %xmm3
	vmovss	%xmm3, -60(%rbp)
	vmulsd	%xmm8, %xmm1, %xmm3
	vmulsd	.LC29(%rip), %xmm1, %xmm1
	vsubsd	%xmm3, %xmm2, %xmm4
	vmulsd	%xmm9, %xmm7, %xmm2
	vaddsd	%xmm1, %xmm0, %xmm0
	vaddsd	%xmm2, %xmm4, %xmm3
	vmulsd	%xmm8, %xmm6, %xmm2
	vaddsd	%xmm2, %xmm3, %xmm2
	vmovss	52(%rdi), %xmm3
	vcvtsd2ss	%xmm2, %xmm2, %xmm2
	vsubss	%xmm2, %xmm3, %xmm2
	vmovss	%xmm2, -56(%rbp)
	vmovsd	.LC30(%rip), %xmm2
	vmulsd	%xmm2, %xmm7, %xmm1
	vsubsd	%xmm1, %xmm0, %xmm1
	vmulsd	%xmm2, %xmm6, %xmm0
	vaddsd	%xmm0, %xmm1, %xmm0
	vmovss	60(%rdi), %xmm1
	vcvtsd2ss	%xmm0, %xmm0, %xmm0
	vsubss	%xmm0, %xmm1, %xmm0
	vmovss	%xmm0, -52(%rbp)
	vmovss	32(%rdi), %xmm0
	vmovaps	%xmm5, -48(%rbp)
	vmovss	%xmm0, -32(%rbp)
	vmovss	40(%rdi), %xmm0
	vmovss	%xmm0, -28(%rbp)
	vmovss	48(%rdi), %xmm0
	vmovss	%xmm0, -24(%rbp)
	vmovss	56(%rdi), %xmm0
	vmovss	%xmm0, -20(%rbp)
	cmpl	$2, %esi
	jne	.L593
	vmovaps	-48(%rbp), %ymm0
	vmovaps	-80(%rbp), %ymm2
	vmovapd	.LC31(%rip), %ymm5
	vcvtps2pd	%xmm0, %ymm4
	vextractf128	$0x1, %ymm0, %xmm0
	vcvtps2pd	%xmm2, %ymm1
	vextractf128	$0x1, %ymm2, %xmm2
	vcvtps2pd	%xmm2, %ymm2
	vmulpd	%ymm5, %ymm1, %ymm1
	vaddpd	%ymm1, %ymm4, %ymm3
	vcvtps2pd	%xmm0, %ymm1
	vmulpd	%ymm5, %ymm2, %ymm0
	vaddpd	%ymm0, %ymm1, %ymm0
	vcvtpd2psy	%ymm3, %xmm1
	vcvtpd2psy	%ymm0, %xmm0
	vinsertf128	$0x1, %xmm0, %ymm1, %ymm0
	vmovaps	%ymm0, -48(%rbp)
.L593:
	movq	-48(%rbp), %rdx
	movq	%rdx, (%rdi)
	movq	-40(%rbp), %rdx
	movq	%rdx, 8(%rdi)
	movq	-32(%rbp), %rdx
	movq	%rdx, 16(%rdi)
	movq	-24(%rbp), %rdx
	movq	%rdx, 24(%rdi)
	movq	-80(%rbp), %rdx
	movq	%rdx, 32(%rdi)
	movq	-72(%rbp), %rdx
	movq	%rdx, 8(%rax)
	movq	-64(%rbp), %rdx
	movq	%rdx, 16(%rax)
	movq	-56(%rbp), %rdx
	movq	%rdx, 24(%rax)
	popq	%r10
	.cfi_def_cfa 10, 0
	popq	%rbp
	leaq	-8(%r10), %rsp
	.cfi_def_cfa 7, 8
	ret
	.cfi_endproc
.LFE1606:
	.size	_ZN18WaveletsOnInterval3WI49transformILi16ELb1EEEvPfi, .-_ZN18WaveletsOnInterval3WI49transformILi16ELb1EEEvPfi
	.section	.text.unlikely._ZN18WaveletsOnInterval3WI49transformILi16ELb1EEEvPfi,"axG",@progbits,_ZN18WaveletsOnInterval3WI49transformILi16ELb1EEEvPfi,comdat
.LCOLDE50:
	.section	.text._ZN18WaveletsOnInterval3WI49transformILi16ELb1EEEvPfi,"axG",@progbits,_ZN18WaveletsOnInterval3WI49transformILi16ELb1EEEvPfi,comdat
.LHOTE50:
	.section	.text.unlikely._ZN18WaveletsOnInterval3WI49transformILi16ELb0EEEvPfi,"axG",@progbits,_ZN18WaveletsOnInterval3WI49transformILi16ELb0EEEvPfi,comdat
.LCOLDB51:
	.section	.text._ZN18WaveletsOnInterval3WI49transformILi16ELb0EEEvPfi,"axG",@progbits,_ZN18WaveletsOnInterval3WI49transformILi16ELb0EEEvPfi,comdat
.LHOTB51:
	.p2align 4,,15
	.weak	_ZN18WaveletsOnInterval3WI49transformILi16ELb0EEEvPfi
	.type	_ZN18WaveletsOnInterval3WI49transformILi16ELb0EEEvPfi, @function
_ZN18WaveletsOnInterval3WI49transformILi16ELb0EEEvPfi:
.LFB1607:
	.cfi_startproc
	leaq	8(%rsp), %r10
	.cfi_def_cfa 10, 0
	andq	$-32, %rsp
	movl	$32, %edx
	pushq	-8(%r10)
	pushq	%rbp
	leal	-1(%rsi), %eax
	.cfi_escape 0x10,0x6,0x2,0x76,0
	movq	%rsp, %rbp
	pushq	%r12
	.cfi_escape 0x10,0xc,0x2,0x76,0x78
	movl	%esi, %r12d
	pushq	%r10
	.cfi_escape 0xf,0x3,0x76,0x70,0x6
	leaq	32(%rdi), %rsi
	pushq	%rbx
	.cfi_escape 0x10,0x3,0x2,0x76,0x68
	movq	%rdi, %rbx
	subq	$88, %rsp
	cmpl	$1, %eax
	movq	(%rdi), %rax
	movq	%rax, -112(%rbp)
	movq	8(%rdi), %rax
	movq	%rax, -104(%rbp)
	movq	16(%rdi), %rax
	movq	%rax, -96(%rbp)
	movq	24(%rdi), %rax
	leaq	-80(%rbp), %rdi
	movq	%rax, -88(%rbp)
	jbe	.L610
	call	memcpy
	vxorpd	%xmm8, %xmm8, %xmm8
	vxorpd	%xmm2, %xmm2, %xmm2
	vmovsd	.LC33(%rip), %xmm6
	vcvtss2sd	-112(%rbp), %xmm8, %xmm8
	vcvtss2sd	-108(%rbp), %xmm2, %xmm2
	vxorpd	%xmm7, %xmm7, %xmm7
	vmovsd	.LC36(%rip), %xmm4
	vmulsd	%xmm6, %xmm2, %xmm2
	vcvtss2sd	-104(%rbp), %xmm7, %xmm7
	vmovss	-80(%rbp), %xmm3
	vxorps	%xmm9, %xmm9, %xmm9
	vmovsd	.LC35(%rip), %xmm5
	vmulsd	%xmm4, %xmm8, %xmm0
	vmovsd	.LC34(%rip), %xmm1
	vmulsd	%xmm5, %xmm8, %xmm8
	vmovups	-76(%rbp), %xmm10
	vmulsd	%xmm1, %xmm7, %xmm7
	vsubsd	%xmm2, %xmm0, %xmm0
	vaddsd	%xmm8, %xmm2, %xmm2
	vxorps	%xmm8, %xmm8, %xmm8
	vaddsd	%xmm7, %xmm0, %xmm0
	vsubsd	%xmm7, %xmm2, %xmm2
	vxorps	%xmm7, %xmm7, %xmm7
	vcvtsd2ss	%xmm0, %xmm0, %xmm0
	vsubss	%xmm3, %xmm0, %xmm0
	vcvtsd2ss	%xmm2, %xmm2, %xmm2
	vaddss	%xmm2, %xmm3, %xmm2
	vmovaps	-112(%rbp), %xmm3
	vmovss	%xmm0, (%rbx)
	vmovups	-108(%rbp), %xmm0
	vcvtps2pd	%xmm3, %xmm12
	vmovhlps	%xmm3, %xmm9, %xmm9
	vmovapd	.LC47(%rip), %xmm3
	vmovss	%xmm2, 4(%rbx)
	vcvtps2pd	%xmm0, %xmm11
	vcvtps2pd	%xmm9, %xmm9
	vmovhlps	%xmm0, %xmm8, %xmm8
	vmovups	-104(%rbp), %xmm2
	vcvtps2pd	%xmm8, %xmm8
	vmovhlps	%xmm2, %xmm7, %xmm7
	vcvtps2pd	%xmm2, %xmm0
	vcvtps2pd	%xmm7, %xmm7
	vmulpd	%xmm3, %xmm0, %xmm0
	vmulpd	%xmm3, %xmm7, %xmm7
	vmulpd	%xmm3, %xmm12, %xmm2
	vmulpd	%xmm3, %xmm9, %xmm3
	vaddpd	%xmm11, %xmm2, %xmm2
	vaddpd	%xmm8, %xmm3, %xmm3
	vsubpd	%xmm0, %xmm2, %xmm2
	vsubpd	%xmm7, %xmm3, %xmm3
	vinsertf128	$0x1, %xmm3, %ymm2, %ymm2
	vcvtpd2psy	%ymm2, %xmm2
	vsubps	%xmm10, %xmm2, %xmm2
	vmovapd	.LC48(%rip), %xmm3
	vmulpd	%xmm3, %xmm9, %xmm9
	vmulpd	%xmm3, %xmm12, %xmm12
	vxorpd	%xmm3, %xmm3, %xmm3
	vcvtss2sd	-88(%rbp), %xmm3, %xmm3
	vmulsd	%xmm6, %xmm3, %xmm6
	vaddpd	%xmm9, %xmm8, %xmm8
	vxorpd	%xmm9, %xmm9, %xmm9
	vcvtss2sd	-96(%rbp), %xmm9, %xmm9
	vaddpd	%xmm12, %xmm11, %xmm11
	vaddpd	%xmm8, %xmm7, %xmm7
	vmovss	-60(%rbp), %xmm8
	vaddpd	%xmm11, %xmm0, %xmm0
	vinsertf128	$0x1, %xmm7, %ymm0, %ymm0
	vcvtpd2psy	%ymm0, %xmm0
	vaddps	%xmm0, %xmm10, %xmm10
	vmulsd	%xmm1, %xmm3, %xmm7
	vunpcklps	%xmm10, %xmm2, %xmm0
	vunpckhps	%xmm10, %xmm2, %xmm10
	vmovups	%xmm10, 24(%rbx)
	vmovsd	.LC40(%rip), %xmm10
	vmulsd	%xmm1, %xmm9, %xmm2
	vmovups	%xmm0, 8(%rbx)
	vxorpd	%xmm0, %xmm0, %xmm0
	vcvtss2sd	-92(%rbp), %xmm0, %xmm0
	vmulsd	%xmm10, %xmm9, %xmm9
	vaddsd	%xmm0, %xmm2, %xmm2
	vaddsd	%xmm9, %xmm0, %xmm9
	vsubsd	%xmm7, %xmm2, %xmm2
	vaddsd	%xmm9, %xmm7, %xmm7
	vmovss	-56(%rbp), %xmm9
	vcvtsd2ss	%xmm2, %xmm2, %xmm2
	vsubss	%xmm8, %xmm2, %xmm2
	vcvtsd2ss	%xmm7, %xmm7, %xmm7
	vaddss	%xmm7, %xmm8, %xmm7
	vmovss	%xmm2, 40(%rbx)
	vmovss	%xmm7, 44(%rbx)
	vxorpd	%xmm7, %xmm7, %xmm7
	vcvtss2sd	-84(%rbp), %xmm7, %xmm7
	vmulsd	%xmm1, %xmm7, %xmm8
	vmulsd	%xmm1, %xmm0, %xmm1
	vmulsd	%xmm10, %xmm0, %xmm0
	vmulsd	%xmm5, %xmm7, %xmm5
	vmulsd	%xmm4, %xmm7, %xmm4
	vaddsd	%xmm3, %xmm1, %xmm2
	vsubsd	%xmm6, %xmm1, %xmm1
	vsubsd	%xmm8, %xmm2, %xmm2
	vaddsd	%xmm4, %xmm1, %xmm1
	vcvtsd2ss	%xmm2, %xmm2, %xmm2
	vsubss	%xmm9, %xmm2, %xmm2
	vcvtsd2ss	%xmm1, %xmm1, %xmm1
	vmovss	%xmm2, 48(%rbx)
	vaddsd	%xmm0, %xmm3, %xmm2
	vaddsd	%xmm6, %xmm0, %xmm0
	vaddsd	%xmm2, %xmm8, %xmm8
	vmovss	-52(%rbp), %xmm2
	vaddsd	%xmm5, %xmm0, %xmm0
	vaddss	%xmm1, %xmm2, %xmm1
	vcvtsd2ss	%xmm8, %xmm8, %xmm8
	vaddss	%xmm8, %xmm9, %xmm8
	vcvtsd2ss	%xmm0, %xmm0, %xmm0
	vsubss	%xmm2, %xmm0, %xmm0
	vmovss	%xmm1, 60(%rbx)
	vmovss	%xmm8, 52(%rbx)
	vmovss	%xmm0, 56(%rbx)
	addq	$88, %rsp
	popq	%rbx
	popq	%r10
	.cfi_remember_state
	.cfi_def_cfa 10, 0
	popq	%r12
	popq	%rbp
	leaq	-8(%r10), %rsp
	.cfi_def_cfa 7, 8
	ret
	.p2align 4,,10
	.p2align 3
.L610:
	.cfi_restore_state
	call	memcpy
	cmpl	$2, %r12d
	jne	.L601
	vmovaps	-112(%rbp), %ymm0
	vmovaps	-80(%rbp), %ymm2
	vmovapd	.LC31(%rip), %ymm5
	vcvtps2pd	%xmm0, %ymm4
	vextractf128	$0x1, %ymm0, %xmm0
	vcvtps2pd	%xmm2, %ymm1
	vextractf128	$0x1, %ymm2, %xmm2
	vcvtps2pd	%xmm2, %ymm2
	vmulpd	%ymm5, %ymm1, %ymm1
	vsubpd	%ymm1, %ymm4, %ymm3
	vcvtps2pd	%xmm0, %ymm1
	vmulpd	%ymm5, %ymm2, %ymm0
	vsubpd	%ymm0, %ymm1, %ymm0
	vcvtpd2psy	%ymm3, %xmm1
	vcvtpd2psy	%ymm0, %xmm0
	vinsertf128	$0x1, %xmm0, %ymm1, %ymm0
	vmovaps	%ymm0, -112(%rbp)
.L601:
	vmovss	-112(%rbp), %xmm0
	vxorpd	%xmm1, %xmm1, %xmm1
	vxorpd	%xmm10, %xmm10, %xmm10
	vcvtss2sd	-112(%rbp), %xmm1, %xmm1
	vmovsd	.LC20(%rip), %xmm5
	vcvtss2sd	-108(%rbp), %xmm10, %xmm10
	vxorpd	%xmm7, %xmm7, %xmm7
	vcvtss2sd	-104(%rbp), %xmm7, %xmm7
	vmovsd	.LC21(%rip), %xmm6
	vmovss	%xmm0, (%rbx)
	vmovss	-108(%rbp), %xmm0
	vmovsd	.LC22(%rip), %xmm8
	vmulsd	%xmm6, %xmm10, %xmm2
	vmovsd	.LC26(%rip), %xmm9
	vmovss	%xmm0, 8(%rbx)
	vmovss	-104(%rbp), %xmm0
	vmulsd	%xmm9, %xmm10, %xmm3
	vmovss	%xmm0, 16(%rbx)
	vmovss	-100(%rbp), %xmm0
	vmulsd	%xmm9, %xmm7, %xmm4
	vmovss	%xmm0, 24(%rbx)
	vmovss	-96(%rbp), %xmm0
	vmovss	%xmm0, 32(%rbx)
	vmovss	-92(%rbp), %xmm0
	vmovss	%xmm0, 40(%rbx)
	vmovss	-88(%rbp), %xmm0
	vmovss	%xmm0, 48(%rbx)
	vmovss	-84(%rbp), %xmm0
	vmovss	%xmm0, 56(%rbx)
	vmulsd	%xmm5, %xmm1, %xmm0
	vaddsd	%xmm2, %xmm0, %xmm0
	vmulsd	%xmm5, %xmm7, %xmm2
	vsubsd	%xmm2, %xmm0, %xmm0
	vxorpd	%xmm2, %xmm2, %xmm2
	vcvtss2sd	-100(%rbp), %xmm2, %xmm2
	vmulsd	%xmm8, %xmm2, %xmm11
	vaddsd	%xmm11, %xmm0, %xmm0
	vcvtsd2ss	%xmm0, %xmm0, %xmm0
	vaddss	-80(%rbp), %xmm0, %xmm0
	vmovss	%xmm0, 4(%rbx)
	vmovsd	.LC27(%rip), %xmm0
	vmulsd	%xmm0, %xmm1, %xmm1
	vmulsd	%xmm0, %xmm10, %xmm10
	vmulsd	%xmm0, %xmm7, %xmm7
	vaddsd	%xmm3, %xmm1, %xmm3
	vaddsd	%xmm4, %xmm3, %xmm1
	vaddsd	%xmm10, %xmm4, %xmm4
	vsubsd	%xmm11, %xmm1, %xmm1
	vmulsd	%xmm9, %xmm2, %xmm11
	vmulsd	%xmm0, %xmm2, %xmm2
	vcvtsd2ss	%xmm1, %xmm1, %xmm1
	vaddss	-76(%rbp), %xmm1, %xmm1
	vaddsd	%xmm11, %xmm4, %xmm4
	vmovss	%xmm1, 12(%rbx)
	vxorpd	%xmm1, %xmm1, %xmm1
	vcvtss2sd	-96(%rbp), %xmm1, %xmm1
	vmulsd	%xmm8, %xmm1, %xmm3
	vmulsd	%xmm9, %xmm1, %xmm10
	vaddsd	%xmm11, %xmm7, %xmm7
	vmulsd	%xmm0, %xmm1, %xmm0
	vsubsd	%xmm3, %xmm4, %xmm4
	vaddsd	%xmm10, %xmm7, %xmm7
	vaddsd	%xmm10, %xmm2, %xmm2
	vcvtsd2ss	%xmm4, %xmm4, %xmm4
	vaddss	-72(%rbp), %xmm4, %xmm4
	vmovss	%xmm4, 20(%rbx)
	vxorpd	%xmm4, %xmm4, %xmm4
	vcvtss2sd	-92(%rbp), %xmm4, %xmm4
	vmulsd	%xmm8, %xmm4, %xmm11
	vmulsd	%xmm9, %xmm4, %xmm10
	vsubsd	%xmm11, %xmm7, %xmm7
	vaddsd	%xmm10, %xmm2, %xmm2
	vaddsd	%xmm10, %xmm0, %xmm0
	vcvtsd2ss	%xmm7, %xmm7, %xmm7
	vaddss	-68(%rbp), %xmm7, %xmm7
	vmulsd	.LC28(%rip), %xmm1, %xmm1
	vmovss	%xmm7, 28(%rbx)
	vxorpd	%xmm7, %xmm7, %xmm7
	vcvtss2sd	-88(%rbp), %xmm7, %xmm7
	vmulsd	%xmm8, %xmm7, %xmm11
	vmulsd	%xmm9, %xmm7, %xmm9
	vmulsd	%xmm6, %xmm7, %xmm6
	vsubsd	%xmm11, %xmm2, %xmm2
	vaddsd	%xmm9, %xmm0, %xmm0
	vcvtsd2ss	%xmm2, %xmm2, %xmm2
	vaddss	-64(%rbp), %xmm2, %xmm2
	vmovss	%xmm2, 36(%rbx)
	vxorpd	%xmm2, %xmm2, %xmm2
	vcvtss2sd	-84(%rbp), %xmm2, %xmm2
	vmulsd	%xmm8, %xmm2, %xmm8
	vsubsd	%xmm8, %xmm0, %xmm0
	vcvtsd2ss	%xmm0, %xmm0, %xmm0
	vaddss	-60(%rbp), %xmm0, %xmm0
	vmovss	%xmm0, 44(%rbx)
	vmulsd	%xmm5, %xmm4, %xmm0
	vmulsd	%xmm5, %xmm2, %xmm5
	vmulsd	.LC29(%rip), %xmm4, %xmm4
	vsubsd	%xmm0, %xmm3, %xmm3
	vaddsd	%xmm4, %xmm1, %xmm1
	vaddsd	%xmm6, %xmm3, %xmm3
	vaddsd	%xmm5, %xmm3, %xmm5
	vmovsd	.LC30(%rip), %xmm3
	vmulsd	%xmm3, %xmm7, %xmm0
	vcvtsd2ss	%xmm5, %xmm5, %xmm5
	vaddss	-56(%rbp), %xmm5, %xmm5
	vmovss	%xmm5, 52(%rbx)
	vsubsd	%xmm0, %xmm1, %xmm1
	vmulsd	%xmm3, %xmm2, %xmm0
	vaddsd	%xmm0, %xmm1, %xmm0
	vcvtsd2ss	%xmm0, %xmm0, %xmm0
	vaddss	-52(%rbp), %xmm0, %xmm0
	vmovss	%xmm0, 60(%rbx)
	addq	$88, %rsp
	popq	%rbx
	popq	%r10
	.cfi_def_cfa 10, 0
	popq	%r12
	popq	%rbp
	leaq	-8(%r10), %rsp
	.cfi_def_cfa 7, 8
	ret
	.cfi_endproc
.LFE1607:
	.size	_ZN18WaveletsOnInterval3WI49transformILi16ELb0EEEvPfi, .-_ZN18WaveletsOnInterval3WI49transformILi16ELb0EEEvPfi
	.section	.text.unlikely._ZN18WaveletsOnInterval3WI49transformILi16ELb0EEEvPfi,"axG",@progbits,_ZN18WaveletsOnInterval3WI49transformILi16ELb0EEEvPfi,comdat
.LCOLDE51:
	.section	.text._ZN18WaveletsOnInterval3WI49transformILi16ELb0EEEvPfi,"axG",@progbits,_ZN18WaveletsOnInterval3WI49transformILi16ELb0EEEvPfi,comdat
.LHOTE51:
	.section	.text.unlikely._ZN18WaveletsOnInterval3WI49transformILi8ELb1EEEvPfi,"axG",@progbits,_ZN18WaveletsOnInterval3WI49transformILi8ELb1EEEvPfi,comdat
.LCOLDB53:
	.section	.text._ZN18WaveletsOnInterval3WI49transformILi8ELb1EEEvPfi,"axG",@progbits,_ZN18WaveletsOnInterval3WI49transformILi8ELb1EEEvPfi,comdat
.LHOTB53:
	.p2align 4,,15
	.weak	_ZN18WaveletsOnInterval3WI49transformILi8ELb1EEEvPfi
	.type	_ZN18WaveletsOnInterval3WI49transformILi8ELb1EEEvPfi, @function
_ZN18WaveletsOnInterval3WI49transformILi8ELb1EEEvPfi:
.LFB1673:
	.cfi_startproc
	pushq	%rbp
	.cfi_def_cfa_offset 16
	.cfi_offset 6, -16
	leal	-1(%rsi), %eax
	movq	%rsp, %rbp
	.cfi_def_cfa_register 6
	pushq	%r10
	.cfi_offset 10, -24
	cmpl	$1, %eax
	jbe	.L617
	vmovups	(%rdi), %xmm0
	vxorpd	%xmm4, %xmm4, %xmm4
	vxorpd	%xmm12, %xmm12, %xmm12
	vxorpd	%xmm8, %xmm8, %xmm8
	vmovups	16(%rdi), %xmm2
	vmovsd	.LC33(%rip), %xmm11
	vmovsd	.LC35(%rip), %xmm9
	vshufps	$136, %xmm2, %xmm0, %xmm1
	vshufps	$221, %xmm2, %xmm0, %xmm0
	vaddps	%xmm0, %xmm1, %xmm0
	vmulps	.LC49(%rip), %xmm0, %xmm0
	vmovsd	.LC36(%rip), %xmm10
	vmovss	4(%rdi), %xmm1
	vsubss	(%rdi), %xmm1, %xmm3
	vmovss	.LC37(%rip), %xmm7
	vmovaps	%xmm0, -48(%rbp)
	vcvtss2sd	-48(%rbp), %xmm4, %xmm4
	vcvtss2sd	-44(%rbp), %xmm12, %xmm12
	vmulsd	%xmm10, %xmm4, %xmm1
	vcvtss2sd	-40(%rbp), %xmm8, %xmm8
	vmulsd	%xmm11, %xmm12, %xmm6
	movq	-48(%rbp), %rax
	vmovsd	.LC34(%rip), %xmm0
	vmulsd	%xmm9, %xmm4, %xmm2
	vmulsd	%xmm0, %xmm8, %xmm5
	movq	%rax, (%rdi)
	movq	-40(%rbp), %rax
	vsubsd	%xmm6, %xmm1, %xmm1
	vaddsd	%xmm6, %xmm2, %xmm2
	vaddsd	%xmm1, %xmm5, %xmm1
	vsubsd	%xmm5, %xmm2, %xmm2
	vcvtsd2ss	%xmm1, %xmm1, %xmm1
	vcvtsd2ss	%xmm2, %xmm2, %xmm2
	vsubss	%xmm1, %xmm2, %xmm1
	vmovsd	.LC40(%rip), %xmm2
	vmulsd	%xmm2, %xmm4, %xmm6
	vsubss	%xmm1, %xmm3, %xmm1
	vmulsd	%xmm2, %xmm12, %xmm2
	vmulss	%xmm7, %xmm1, %xmm1
	vaddsd	%xmm6, %xmm12, %xmm6
	vaddsd	%xmm6, %xmm5, %xmm6
	vmovss	%xmm1, -32(%rbp)
	vmovss	12(%rdi), %xmm1
	vsubss	8(%rdi), %xmm1, %xmm3
	vxorps	%xmm1, %xmm1, %xmm1
	movq	%rax, 8(%rdi)
	vcvtsd2ss	%xmm6, %xmm1, %xmm1
	vmulsd	%xmm0, %xmm4, %xmm6
	vaddsd	%xmm6, %xmm12, %xmm4
	vsubsd	%xmm5, %xmm4, %xmm5
	vxorps	%xmm4, %xmm4, %xmm4
	vcvtsd2ss	%xmm5, %xmm4, %xmm4
	vsubss	%xmm4, %xmm1, %xmm4
	vxorpd	%xmm5, %xmm5, %xmm5
	vcvtss2sd	-36(%rbp), %xmm5, %xmm5
	vmulsd	%xmm0, %xmm5, %xmm6
	vmovss	20(%rdi), %xmm1
	vmulsd	%xmm0, %xmm12, %xmm0
	vsubss	16(%rdi), %xmm1, %xmm1
	vsubss	%xmm4, %xmm3, %xmm4
	vmulsd	%xmm10, %xmm5, %xmm10
	vaddsd	%xmm2, %xmm8, %xmm3
	vmulss	%xmm7, %xmm4, %xmm4
	vaddsd	%xmm6, %xmm3, %xmm3
	vmovss	%xmm4, -28(%rbp)
	vaddsd	%xmm0, %xmm8, %xmm4
	vcvtsd2ss	%xmm3, %xmm3, %xmm3
	movq	-32(%rbp), %rax
	vsubsd	%xmm6, %xmm4, %xmm4
	movq	%rax, 16(%rdi)
	vcvtsd2ss	%xmm4, %xmm4, %xmm4
	vsubss	%xmm4, %xmm3, %xmm3
	vmovss	28(%rdi), %xmm4
	vsubss	24(%rdi), %xmm4, %xmm4
	vsubss	%xmm3, %xmm1, %xmm1
	vmulss	%xmm7, %xmm1, %xmm1
	vmovss	%xmm1, -24(%rbp)
	vmulsd	%xmm11, %xmm8, %xmm1
	vsubsd	%xmm1, %xmm0, %xmm0
	vaddsd	%xmm2, %xmm1, %xmm3
	vmulsd	%xmm9, %xmm5, %xmm1
	vaddsd	%xmm10, %xmm0, %xmm0
	vaddsd	%xmm1, %xmm3, %xmm2
	vcvtsd2ss	%xmm0, %xmm0, %xmm0
	vxorps	%xmm1, %xmm1, %xmm1
	vcvtsd2ss	%xmm2, %xmm1, %xmm1
	vsubss	%xmm1, %xmm0, %xmm1
	vsubss	%xmm1, %xmm4, %xmm1
	vmulss	%xmm7, %xmm1, %xmm1
	vmovss	%xmm1, -20(%rbp)
	movq	-24(%rbp), %rax
	movq	%rax, 24(%rdi)
.L611:
	popq	%r10
	popq	%rbp
	.cfi_remember_state
	.cfi_def_cfa 7, 8
	ret
	.p2align 4,,10
	.p2align 3
.L617:
	.cfi_restore_state
	vxorpd	%xmm0, %xmm0, %xmm0
	vxorpd	%xmm1, %xmm1, %xmm1
	vcvtss2sd	(%rdi), %xmm0, %xmm0
	vcvtss2sd	8(%rdi), %xmm1, %xmm1
	vxorpd	%xmm7, %xmm7, %xmm7
	vcvtss2sd	16(%rdi), %xmm7, %xmm7
	vmovsd	.LC20(%rip), %xmm8
	vxorpd	%xmm6, %xmm6, %xmm6
	vmovsd	.LC21(%rip), %xmm9
	vcvtss2sd	24(%rdi), %xmm6, %xmm6
	leaq	16(%rdi), %rax
	vmovsd	.LC22(%rip), %xmm2
	vmulsd	%xmm8, %xmm0, %xmm3
	vmulsd	%xmm9, %xmm1, %xmm5
	vmulsd	%xmm2, %xmm6, %xmm10
	vmulsd	%xmm2, %xmm0, %xmm2
	vaddsd	%xmm5, %xmm3, %xmm5
	vmulsd	%xmm8, %xmm7, %xmm3
	vsubsd	%xmm3, %xmm5, %xmm5
	vmovss	4(%rdi), %xmm3
	vaddsd	%xmm10, %xmm5, %xmm5
	vcvtsd2ss	%xmm5, %xmm5, %xmm5
	vsubss	%xmm5, %xmm3, %xmm5
	vmovsd	.LC26(%rip), %xmm3
	vmulsd	%xmm3, %xmm1, %xmm4
	vmovss	%xmm5, -48(%rbp)
	vmulsd	.LC27(%rip), %xmm0, %xmm5
	vmulsd	.LC28(%rip), %xmm0, %xmm0
	vaddsd	%xmm4, %xmm5, %xmm5
	vmulsd	%xmm3, %xmm7, %xmm4
	vmovss	12(%rdi), %xmm3
	vaddsd	%xmm4, %xmm5, %xmm4
	vsubsd	%xmm10, %xmm4, %xmm4
	vcvtsd2ss	%xmm4, %xmm4, %xmm4
	vsubss	%xmm4, %xmm3, %xmm4
	vmulsd	%xmm8, %xmm1, %xmm3
	vmulsd	.LC29(%rip), %xmm1, %xmm1
	vmovss	%xmm4, -44(%rbp)
	vsubsd	%xmm3, %xmm2, %xmm4
	vmulsd	%xmm9, %xmm7, %xmm2
	vaddsd	%xmm1, %xmm0, %xmm0
	vaddsd	%xmm2, %xmm4, %xmm3
	vmulsd	%xmm8, %xmm6, %xmm2
	vaddsd	%xmm2, %xmm3, %xmm2
	vmovss	20(%rdi), %xmm3
	vcvtsd2ss	%xmm2, %xmm2, %xmm2
	vsubss	%xmm2, %xmm3, %xmm2
	vmovss	%xmm2, -40(%rbp)
	vmovsd	.LC30(%rip), %xmm2
	vmulsd	%xmm2, %xmm7, %xmm1
	vsubsd	%xmm1, %xmm0, %xmm1
	vmulsd	%xmm2, %xmm6, %xmm0
	vaddsd	%xmm0, %xmm1, %xmm0
	vmovss	28(%rdi), %xmm1
	vcvtsd2ss	%xmm0, %xmm0, %xmm0
	vsubss	%xmm0, %xmm1, %xmm0
	vmovss	%xmm0, -36(%rbp)
	vmovss	(%rdi), %xmm0
	vmovss	%xmm0, -32(%rbp)
	vmovss	8(%rdi), %xmm0
	vmovss	%xmm0, -28(%rbp)
	vmovss	16(%rdi), %xmm0
	vmovss	%xmm0, -24(%rbp)
	vmovss	24(%rdi), %xmm0
	vmovss	%xmm0, -20(%rbp)
	cmpl	$2, %esi
	jne	.L615
	vmovaps	-32(%rbp), %xmm2
	vxorps	%xmm1, %xmm1, %xmm1
	vmovaps	-48(%rbp), %xmm5
	vmovapd	.LC52(%rip), %xmm4
	vcvtps2pd	%xmm2, %xmm0
	vmovhlps	%xmm2, %xmm1, %xmm1
	vxorps	%xmm2, %xmm2, %xmm2
	vmovhlps	%xmm5, %xmm2, %xmm2
	vcvtps2pd	%xmm5, %xmm3
	vcvtps2pd	%xmm1, %xmm1
	vmulpd	%xmm4, %xmm3, %xmm3
	vcvtps2pd	%xmm2, %xmm2
	vmulpd	%xmm4, %xmm2, %xmm2
	vaddpd	%xmm3, %xmm0, %xmm0
	vaddpd	%xmm2, %xmm1, %xmm1
	vinsertf128	$0x1, %xmm1, %ymm0, %ymm0
	vcvtpd2psy	%ymm0, %xmm0
	vmovaps	%xmm0, -32(%rbp)
.L615:
	movq	-32(%rbp), %rdx
	movq	%rdx, (%rdi)
	movq	-24(%rbp), %rdx
	movq	%rdx, 8(%rdi)
	movq	-48(%rbp), %rdx
	movq	%rdx, 16(%rdi)
	movq	-40(%rbp), %rdx
	movq	%rdx, 8(%rax)
	jmp	.L611
	.cfi_endproc
.LFE1673:
	.size	_ZN18WaveletsOnInterval3WI49transformILi8ELb1EEEvPfi, .-_ZN18WaveletsOnInterval3WI49transformILi8ELb1EEEvPfi
	.section	.text.unlikely._ZN18WaveletsOnInterval3WI49transformILi8ELb1EEEvPfi,"axG",@progbits,_ZN18WaveletsOnInterval3WI49transformILi8ELb1EEEvPfi,comdat
.LCOLDE53:
	.section	.text._ZN18WaveletsOnInterval3WI49transformILi8ELb1EEEvPfi,"axG",@progbits,_ZN18WaveletsOnInterval3WI49transformILi8ELb1EEEvPfi,comdat
.LHOTE53:
	.section	.text.unlikely._ZN24WaveletCompressorGenericILi256EfE8compressEfbbi,"axG",@progbits,_ZN24WaveletCompressorGenericILi256EfE8compressEfbbi,comdat
	.align 2
.LCOLDB58:
	.section	.text._ZN24WaveletCompressorGenericILi256EfE8compressEfbbi,"axG",@progbits,_ZN24WaveletCompressorGenericILi256EfE8compressEfbbi,comdat
.LHOTB58:
	.align 2
	.p2align 4,,15
	.weak	_ZN24WaveletCompressorGenericILi256EfE8compressEfbbi
	.type	_ZN24WaveletCompressorGenericILi256EfE8compressEfbbi, @function
_ZN24WaveletCompressorGenericILi256EfE8compressEfbbi:
.LFB1394:
	.cfi_startproc
	leaq	8(%rsp), %r10
	.cfi_def_cfa 10, 0
	andq	$-32, %rsp
	movq	%rdi, %rax
	pushq	-8(%r10)
	pushq	%rbp
	addq	$24, %rax
	.cfi_escape 0x10,0x6,0x2,0x76,0
	movq	%rsp, %rbp
	pushq	%r15
	.cfi_escape 0x10,0xf,0x2,0x76,0x78
	movl	%ecx, %r15d
	pushq	%r14
	pushq	%r13
	.cfi_escape 0x10,0xe,0x2,0x76,0x70
	.cfi_escape 0x10,0xd,0x2,0x76,0x68
	leaq	67108888(%rdi), %r13
	pushq	%r12
	pushq	%r10
	.cfi_escape 0xf,0x3,0x76,0x58,0x6
	.cfi_escape 0x10,0xc,0x2,0x76,0x60
	pushq	%rbx
	.cfi_escape 0x10,0x3,0x2,0x76,0x50
	movq	%rax, %rbx
	subq	$4194592, %rsp
	movq	%rdi, -4194368(%rbp)
	vmovss	%xmm0, -4194384(%rbp)
	movl	%esi, -4194380(%rbp)
	movl	%edx, -4194628(%rbp)
	movq	%rax, -4194360(%rbp)
	movq	%rax, -4194624(%rbp)
.L623:
	leaq	262144(%rbx), %r12
	movq	%rbx, %r14
	.p2align 4,,10
	.p2align 3
.L619:
	movq	%r14, %rdi
	movl	%r15d, %esi
	addq	$1024, %r14
	call	_ZN18WaveletsOnInterval3WI49transformILi256ELb1EEEvPfi
	cmpq	%r12, %r14
	jne	.L619
	leaq	1024(%rbx), %r14
	xorl	%edi, %edi
	movq	%rbx, %rsi
	addl	$1, %edi
	movq	%r14, %r8
	cmpl	$256, %edi
	je	.L817
.L819:
	movq	%r8, %rdx
	movl	%edi, %eax
	.p2align 4,,10
	.p2align 3
.L621:
	movslq	%eax, %rcx
	vmovss	(%rdx), %xmm1
	addl	$1, %eax
	addq	$1024, %rdx
	leaq	(%rsi,%rcx,4), %rcx
	vmovss	(%rcx), %xmm0
	vmovss	%xmm1, (%rcx)
	vmovss	%xmm0, -1024(%rdx)
	cmpl	$256, %eax
	jne	.L621
	addl	$1, %edi
	addq	$1028, %r8
	addq	$1024, %rsi
	cmpl	$256, %edi
	jne	.L819
.L817:
	movq	%rbx, %rdi
	jmp	.L620
.L820:
	addq	$1024, %r14
.L620:
	movl	%r15d, %esi
	call	_ZN18WaveletsOnInterval3WI49transformILi256ELb1EEEvPfi
	movq	%r14, %rdi
	cmpq	%r14, %r12
	jne	.L820
	movq	%r12, %rbx
	cmpq	%r12, %r13
	jne	.L623
	movq	-4194368(%rbp), %rax
	xorl	%r10d, %r10d
	addq	$262168, %rax
	movq	%rax, -4194376(%rbp)
	movq	%rax, %r11
.L629:
	xorl	%r8d, %r8d
	movslq	%r10d, %rdi
	movq	-4194360(%rbp), %rsi
	movq	%r11, %r9
	addl	$1, %r8d
	salq	$8, %rdi
	cmpl	$256, %r8d
	je	.L625
.L821:
	movq	%r9, %rcx
	movl	%r8d, %edx
	.p2align 4,,10
	.p2align 3
.L626:
	movslq	%edx, %rax
	vmovss	(%rcx), %xmm1
	addl	$1, %edx
	addq	$262144, %rcx
	addq	%rdi, %rax
	vmovss	(%rsi,%rax,4), %xmm0
	vmovss	%xmm1, (%rsi,%rax,4)
	vmovss	%xmm0, -262144(%rcx)
	cmpl	$256, %edx
	jne	.L626
	addl	$1, %r8d
	addq	$262148, %r9
	addq	$262144, %rsi
	cmpl	$256, %r8d
	jne	.L821
.L625:
	addl	$1, %r10d
	addq	$1024, %r11
	cmpl	$256, %r10d
	jne	.L629
	movq	-4194360(%rbp), %r12
.L630:
	leaq	262144(%r12), %rbx
	.p2align 4,,10
	.p2align 3
.L631:
	movq	%r12, %rdi
	movl	%r15d, %esi
	addq	$1024, %r12
	call	_ZN18WaveletsOnInterval3WI49transformILi256ELb1EEEvPfi
	cmpq	%rbx, %r12
	jne	.L631
	cmpq	%r12, %r13
	jne	.L630
	movq	-4194368(%rbp), %rax
	cmpl	$2, %r15d
	movl	%r15d, -4194632(%rbp)
	vmovaps	.LC32(%rip), %ymm14
	leal	-1(%r15), %ebx
	sete	%r14b
	vmovapd	.LC38(%rip), %ymm15
	addq	$33554456, %rax
	movq	%rax, -4194616(%rbp)
	movq	-4194360(%rbp), %rax
	movq	%rax, %r12
.L649:
	movq	%r12, %r13
	movl	$128, %r15d
	.p2align 4,,10
	.p2align 3
.L639:
	cmpl	$1, %ebx
	jbe	.L822
	vmovups	32(%r13), %ymm4
	leaq	-4194352(%rbp), %rdi
	xorl	%eax, %eax
	movabsq	$4602678819172646912, %rdx
	vmovups	0(%r13), %ymm1
	leaq	-2097200(%rbp), %rsi
	vmovq	%rdx, %xmm5
	movabsq	$4608871268660281344, %rcx
	vmovsd	.LC35(%rip), %xmm13
	vmovq	%rcx, %xmm7
	addq	$4, %rsi
	vshufps	$136, %ymm4, %ymm1, %ymm3
	vshufps	$221, %ymm4, %ymm1, %ymm1
	vperm2f128	$3, %ymm3, %ymm3, %ymm2
	leaq	8(%rdi), %r8
	vshufps	$68, %ymm2, %ymm3, %ymm0
	vshufps	$238, %ymm2, %ymm3, %ymm2
	vinsertf128	$1, %xmm2, %ymm0, %ymm0
	vperm2f128	$3, %ymm1, %ymm1, %ymm2
	vshufps	$68, %ymm2, %ymm1, %ymm3
	vshufps	$238, %ymm2, %ymm1, %ymm2
	vinsertf128	$1, %xmm2, %ymm3, %ymm2
	vaddps	%ymm2, %ymm0, %ymm0
	vmovups	96(%r13), %ymm4
	addq	$4, %rdi
	vmovups	64(%r13), %ymm1
	vmovsd	.LC34(%rip), %xmm8
	vmulps	%ymm14, %ymm0, %ymm0
	vmovaps	%ymm0, -4194352(%rbp)
	vmovss	.LC37(%rip), %xmm9
	vshufps	$136, %ymm4, %ymm1, %ymm3
	vshufps	$221, %ymm4, %ymm1, %ymm1
	vperm2f128	$3, %ymm3, %ymm3, %ymm2
	vmovups	160(%r13), %ymm4
	vshufps	$68, %ymm2, %ymm3, %ymm0
	vshufps	$238, %ymm2, %ymm3, %ymm2
	vinsertf128	$1, %xmm2, %ymm0, %ymm0
	vperm2f128	$3, %ymm1, %ymm1, %ymm2
	vshufps	$68, %ymm2, %ymm1, %ymm3
	vshufps	$238, %ymm2, %ymm1, %ymm2
	vinsertf128	$1, %xmm2, %ymm3, %ymm2
	vmovups	128(%r13), %ymm1
	vaddps	%ymm2, %ymm0, %ymm0
	vshufps	$136, %ymm4, %ymm1, %ymm3
	vshufps	$221, %ymm4, %ymm1, %ymm1
	vperm2f128	$3, %ymm3, %ymm3, %ymm2
	vmovups	224(%r13), %ymm4
	vmulps	%ymm14, %ymm0, %ymm0
	vmovaps	%ymm0, -4194320(%rbp)
	vshufps	$68, %ymm2, %ymm3, %ymm0
	vshufps	$238, %ymm2, %ymm3, %ymm2
	vinsertf128	$1, %xmm2, %ymm0, %ymm0
	vperm2f128	$3, %ymm1, %ymm1, %ymm2
	vshufps	$68, %ymm2, %ymm1, %ymm3
	vshufps	$238, %ymm2, %ymm1, %ymm2
	vmovups	192(%r13), %ymm1
	vinsertf128	$1, %xmm2, %ymm3, %ymm2
	vaddps	%ymm2, %ymm0, %ymm0
	vshufps	$136, %ymm4, %ymm1, %ymm3
	vshufps	$221, %ymm4, %ymm1, %ymm1
	vperm2f128	$3, %ymm3, %ymm3, %ymm2
	vmovups	288(%r13), %ymm4
	vmulps	%ymm14, %ymm0, %ymm0
	vmovaps	%ymm0, -4194288(%rbp)
	vshufps	$68, %ymm2, %ymm3, %ymm0
	vshufps	$238, %ymm2, %ymm3, %ymm2
	vinsertf128	$1, %xmm2, %ymm0, %ymm0
	vperm2f128	$3, %ymm1, %ymm1, %ymm2
	vshufps	$68, %ymm2, %ymm1, %ymm3
	vshufps	$238, %ymm2, %ymm1, %ymm2
	vmovups	256(%r13), %ymm1
	vinsertf128	$1, %xmm2, %ymm3, %ymm2
	vaddps	%ymm2, %ymm0, %ymm0
	vshufps	$136, %ymm4, %ymm1, %ymm3
	vshufps	$221, %ymm4, %ymm1, %ymm1
	vperm2f128	$3, %ymm3, %ymm3, %ymm2
	vmovups	352(%r13), %ymm4
	vmulps	%ymm14, %ymm0, %ymm0
	vmovaps	%ymm0, -4194256(%rbp)
	vshufps	$68, %ymm2, %ymm3, %ymm0
	vshufps	$238, %ymm2, %ymm3, %ymm2
	vinsertf128	$1, %xmm2, %ymm0, %ymm0
	vperm2f128	$3, %ymm1, %ymm1, %ymm2
	vshufps	$68, %ymm2, %ymm1, %ymm3
	vshufps	$238, %ymm2, %ymm1, %ymm2
	vmovups	320(%r13), %ymm1
	vinsertf128	$1, %xmm2, %ymm3, %ymm2
	vaddps	%ymm2, %ymm0, %ymm0
	vshufps	$136, %ymm4, %ymm1, %ymm3
	vshufps	$221, %ymm4, %ymm1, %ymm1
	vperm2f128	$3, %ymm3, %ymm3, %ymm2
	vmovups	416(%r13), %ymm4
	vmulps	%ymm14, %ymm0, %ymm0
	vmovaps	%ymm0, -4194224(%rbp)
	vshufps	$68, %ymm2, %ymm3, %ymm0
	vshufps	$238, %ymm2, %ymm3, %ymm2
	vinsertf128	$1, %xmm2, %ymm0, %ymm0
	vperm2f128	$3, %ymm1, %ymm1, %ymm2
	vshufps	$68, %ymm2, %ymm1, %ymm3
	vshufps	$238, %ymm2, %ymm1, %ymm2
	vmovups	384(%r13), %ymm1
	vinsertf128	$1, %xmm2, %ymm3, %ymm2
	vaddps	%ymm2, %ymm0, %ymm0
	vshufps	$136, %ymm4, %ymm1, %ymm3
	vshufps	$221, %ymm4, %ymm1, %ymm1
	vperm2f128	$3, %ymm3, %ymm3, %ymm2
	vmovups	480(%r13), %ymm4
	vmulps	%ymm14, %ymm0, %ymm0
	vmovaps	%ymm0, -4194192(%rbp)
	vshufps	$68, %ymm2, %ymm3, %ymm0
	vshufps	$238, %ymm2, %ymm3, %ymm2
	vinsertf128	$1, %xmm2, %ymm0, %ymm0
	vperm2f128	$3, %ymm1, %ymm1, %ymm2
	vshufps	$68, %ymm2, %ymm1, %ymm3
	vshufps	$238, %ymm2, %ymm1, %ymm2
	vmovups	448(%r13), %ymm1
	vinsertf128	$1, %xmm2, %ymm3, %ymm2
	vaddps	%ymm2, %ymm0, %ymm0
	vshufps	$136, %ymm4, %ymm1, %ymm3
	vshufps	$221, %ymm4, %ymm1, %ymm1
	vperm2f128	$3, %ymm3, %ymm3, %ymm2
	vxorpd	%xmm4, %xmm4, %xmm4
	vmulps	%ymm14, %ymm0, %ymm0
	vmovaps	%ymm0, -4194160(%rbp)
	vcvtss2sd	-4194352(%rbp), %xmm4, %xmm4
	vshufps	$68, %ymm2, %ymm3, %ymm0
	vshufps	$238, %ymm2, %ymm3, %ymm2
	vinsertf128	$1, %xmm2, %ymm0, %ymm0
	vperm2f128	$3, %ymm1, %ymm1, %ymm2
	vshufps	$68, %ymm2, %ymm1, %ymm3
	vshufps	$238, %ymm2, %ymm1, %ymm2
	vinsertf128	$1, %xmm2, %ymm3, %ymm2
	vaddps	%ymm2, %ymm0, %ymm0
	vmulsd	%xmm13, %xmm4, %xmm1
	vxorpd	%xmm2, %xmm2, %xmm2
	vcvtss2sd	-4194344(%rbp), %xmm2, %xmm2
	vmulsd	%xmm8, %xmm2, %xmm2
	vmulps	%ymm14, %ymm0, %ymm0
	vmovaps	%ymm0, -4194128(%rbp)
	vxorpd	%xmm0, %xmm0, %xmm0
	vcvtss2sd	-4194348(%rbp), %xmm0, %xmm0
	vmulsd	%xmm5, %xmm0, %xmm5
	vmovss	4(%r13), %xmm0
	vsubss	0(%r13), %xmm0, %xmm3
	vmulsd	%xmm7, %xmm4, %xmm0
	vaddsd	%xmm5, %xmm1, %xmm1
	vsubsd	%xmm5, %xmm0, %xmm0
	vsubsd	%xmm2, %xmm1, %xmm1
	vaddsd	%xmm0, %xmm2, %xmm0
	vcvtsd2ss	%xmm1, %xmm1, %xmm1
	vcvtsd2ss	%xmm0, %xmm0, %xmm0
	vsubss	%xmm0, %xmm1, %xmm0
	vsubss	%xmm0, %xmm3, %xmm3
	vmulss	%xmm9, %xmm3, %xmm0
	vmovss	%xmm0, -2097200(%rbp)
	.p2align 4,,10
	.p2align 3
.L638:
	vmovups	8(%r13,%rax,2), %ymm10
	vmovups	40(%r13,%rax,2), %ymm3
	vmovups	(%rdi,%rax), %ymm0
	vmovaps	-4194352(%rbp,%rax), %ymm5
	vshufps	$221, %ymm3, %ymm10, %ymm11
	vshufps	$136, %ymm3, %ymm10, %ymm3
	vperm2f128	$3, %ymm11, %ymm11, %ymm4
	vcvtps2pd	%xmm0, %ymm1
	vshufps	$68, %ymm4, %ymm11, %ymm12
	vshufps	$238, %ymm4, %ymm11, %ymm4
	vperm2f128	$3, %ymm3, %ymm3, %ymm11
	vcvtps2pd	%xmm5, %ymm7
	vinsertf128	$1, %xmm4, %ymm12, %ymm12
	vshufps	$68, %ymm11, %ymm3, %ymm4
	vshufps	$238, %ymm11, %ymm3, %ymm11
	vmulpd	.LC39(%rip), %ymm7, %ymm3
	vaddpd	%ymm1, %ymm3, %ymm3
	vmulpd	%ymm15, %ymm7, %ymm7
	vmovups	(%r8,%rax), %ymm2
	vextractf128	$0x1, %ymm5, %xmm5
	vextractf128	$0x1, %ymm0, %xmm0
	vcvtps2pd	%xmm5, %ymm5
	vcvtps2pd	%xmm0, %ymm0
	vcvtps2pd	%xmm2, %ymm6
	vaddpd	%ymm7, %ymm1, %ymm1
	vmulpd	%ymm15, %ymm6, %ymm6
	vextractf128	$0x1, %ymm2, %xmm2
	vaddpd	%ymm6, %ymm3, %ymm10
	vcvtps2pd	%xmm2, %ymm2
	vmulpd	%ymm15, %ymm2, %ymm2
	vmulpd	.LC39(%rip), %ymm5, %ymm3
	vmulpd	%ymm15, %ymm5, %ymm5
	vaddpd	%ymm0, %ymm3, %ymm3
	vinsertf128	$1, %xmm11, %ymm4, %ymm11
	vaddpd	%ymm5, %ymm0, %ymm0
	vsubpd	%ymm6, %ymm1, %ymm1
	vcvtpd2psy	%ymm10, %xmm10
	vaddpd	%ymm2, %ymm3, %ymm3
	vsubpd	%ymm2, %ymm0, %ymm0
	vsubps	%ymm11, %ymm12, %ymm4
	vcvtpd2psy	%ymm1, %xmm1
	vcvtpd2psy	%ymm3, %xmm3
	vinsertf128	$0x1, %xmm3, %ymm10, %ymm3
	vcvtpd2psy	%ymm0, %xmm0
	vinsertf128	$0x1, %xmm0, %ymm1, %ymm0
	vsubps	%ymm0, %ymm3, %ymm0
	vsubps	%ymm0, %ymm4, %ymm4
	vmulps	%ymm14, %ymm4, %ymm4
	vmovups	%ymm4, (%rsi,%rax)
	addq	$32, %rax
	cmpq	$224, %rax
	jne	.L638
	vxorpd	%xmm0, %xmm0, %xmm0
	vcvtss2sd	-4194128(%rbp), %xmm0, %xmm0
	vxorpd	%xmm2, %xmm2, %xmm2
	vmovsd	.LC40(%rip), %xmm5
	vcvtss2sd	-4194120(%rbp), %xmm2, %xmm2
	vmulsd	%xmm8, %xmm2, %xmm4
	vxorpd	%xmm3, %xmm3, %xmm3
	vmovss	460(%r13), %xmm1
	vsubss	456(%r13), %xmm1, %xmm7
	vmulsd	%xmm5, %xmm0, %xmm1
	vcvtss2sd	-4194124(%rbp), %xmm3, %xmm3
	vxorps	%xmm6, %xmm6, %xmm6
	leaq	-4194352(%rbp), %rsi
	movq	%r13, %rdi
	vmovapd	%ymm15, -4194448(%rbp)
	vmovaps	%ymm14, -4194416(%rbp)
	vaddsd	%xmm3, %xmm1, %xmm1
	vaddsd	%xmm4, %xmm1, %xmm1
	vcvtsd2ss	%xmm1, %xmm6, %xmm6
	vmulsd	%xmm8, %xmm0, %xmm1
	vaddsd	%xmm1, %xmm3, %xmm0
	vsubsd	%xmm4, %xmm0, %xmm1
	vxorps	%xmm0, %xmm0, %xmm0
	vcvtsd2ss	%xmm1, %xmm0, %xmm0
	vsubss	%xmm0, %xmm6, %xmm0
	vmulsd	%xmm5, %xmm3, %xmm6
	vxorpd	%xmm1, %xmm1, %xmm1
	vmulsd	%xmm8, %xmm3, %xmm3
	vcvtss2sd	-4194116(%rbp), %xmm1, %xmm1
	vaddsd	%xmm1, %xmm4, %xmm4
	vsubss	%xmm0, %xmm7, %xmm0
	vmulsd	%xmm8, %xmm1, %xmm7
	vaddsd	%xmm6, %xmm2, %xmm6
	vaddsd	%xmm3, %xmm2, %xmm3
	vmulss	%xmm9, %xmm0, %xmm0
	vaddsd	%xmm7, %xmm6, %xmm6
	vsubsd	%xmm7, %xmm3, %xmm3
	vmovss	%xmm0, -2096972(%rbp)
	vmovss	468(%r13), %xmm0
	vsubss	464(%r13), %xmm0, %xmm10
	vcvtsd2ss	%xmm6, %xmm6, %xmm6
	vxorps	%xmm0, %xmm0, %xmm0
	vcvtsd2ss	%xmm3, %xmm0, %xmm0
	vsubss	%xmm0, %xmm6, %xmm0
	vmovss	476(%r13), %xmm3
	vsubss	%xmm0, %xmm10, %xmm0
	vsubss	472(%r13), %xmm3, %xmm10
	vmulsd	%xmm5, %xmm2, %xmm3
	vmulss	%xmm9, %xmm0, %xmm0
	vaddsd	%xmm3, %xmm1, %xmm3
	vmovss	%xmm0, -2096968(%rbp)
	vxorpd	%xmm0, %xmm0, %xmm0
	vcvtss2sd	-4194112(%rbp), %xmm0, %xmm0
	vmulsd	%xmm8, %xmm0, %xmm6
	vaddsd	%xmm7, %xmm0, %xmm7
	vaddsd	%xmm6, %xmm3, %xmm3
	vsubsd	%xmm6, %xmm4, %xmm4
	vcvtsd2ss	%xmm3, %xmm3, %xmm3
	vcvtsd2ss	%xmm4, %xmm4, %xmm4
	vsubss	%xmm4, %xmm3, %xmm2
	vxorpd	%xmm4, %xmm4, %xmm4
	vcvtss2sd	-4194108(%rbp), %xmm4, %xmm4
	vmulsd	%xmm8, %xmm4, %xmm3
	vaddsd	%xmm6, %xmm4, %xmm6
	vsubss	%xmm2, %xmm10, %xmm2
	vmulss	%xmm9, %xmm2, %xmm2
	vsubsd	%xmm3, %xmm7, %xmm7
	vcvtsd2ss	%xmm7, %xmm7, %xmm7
	vmovss	%xmm2, -2096964(%rbp)
	vmovss	484(%r13), %xmm2
	vsubss	480(%r13), %xmm2, %xmm10
	vmulsd	%xmm5, %xmm1, %xmm2
	vaddsd	%xmm0, %xmm2, %xmm2
	vaddsd	%xmm3, %xmm2, %xmm2
	vcvtsd2ss	%xmm2, %xmm2, %xmm2
	vsubss	%xmm7, %xmm2, %xmm1
	vxorpd	%xmm2, %xmm2, %xmm2
	vcvtss2sd	-4194104(%rbp), %xmm2, %xmm2
	vmulsd	%xmm8, %xmm2, %xmm7
	vsubss	%xmm1, %xmm10, %xmm1
	vmulss	%xmm9, %xmm1, %xmm1
	vsubsd	%xmm7, %xmm6, %xmm6
	vcvtsd2ss	%xmm6, %xmm6, %xmm6
	vmovss	%xmm1, -2096960(%rbp)
	vmovss	492(%r13), %xmm1
	vsubss	488(%r13), %xmm1, %xmm10
	vmulsd	%xmm5, %xmm0, %xmm1
	vaddsd	%xmm4, %xmm1, %xmm1
	vaddsd	%xmm7, %xmm1, %xmm1
	vcvtsd2ss	%xmm1, %xmm1, %xmm1
	vsubss	%xmm6, %xmm1, %xmm0
	vmulsd	%xmm5, %xmm4, %xmm1
	vxorpd	%xmm6, %xmm6, %xmm6
	vcvtss2sd	-4194100(%rbp), %xmm6, %xmm6
	vmulsd	%xmm8, %xmm6, %xmm8
	vaddsd	%xmm3, %xmm2, %xmm5
	vsubss	%xmm0, %xmm10, %xmm0
	vaddsd	%xmm2, %xmm1, %xmm4
	vmulss	%xmm9, %xmm0, %xmm0
	vaddsd	%xmm8, %xmm4, %xmm4
	vsubsd	%xmm8, %xmm5, %xmm8
	vxorps	%xmm5, %xmm5, %xmm5
	vmovss	%xmm0, -2096956(%rbp)
	vmovss	500(%r13), %xmm0
	vsubss	496(%r13), %xmm0, %xmm0
	vcvtsd2ss	%xmm4, %xmm4, %xmm4
	vcvtsd2ss	%xmm8, %xmm5, %xmm5
	vsubss	%xmm5, %xmm4, %xmm4
	vmovq	%rdx, %xmm5
	movl	$256, %edx
	vmulsd	%xmm5, %xmm2, %xmm2
	vmovq	%rcx, %xmm5
	vsubss	%xmm4, %xmm0, %xmm0
	vmulss	%xmm9, %xmm0, %xmm0
	vsubsd	%xmm2, %xmm3, %xmm3
	vaddsd	%xmm1, %xmm2, %xmm2
	vmovss	%xmm0, -2096952(%rbp)
	vmovss	508(%r13), %xmm0
	vsubss	504(%r13), %xmm0, %xmm7
	vmulsd	%xmm5, %xmm6, %xmm0
	vaddsd	%xmm0, %xmm3, %xmm3
	vmulsd	%xmm13, %xmm6, %xmm0
	vcvtsd2ss	%xmm3, %xmm3, %xmm3
	vaddsd	%xmm0, %xmm2, %xmm1
	vxorps	%xmm0, %xmm0, %xmm0
	vcvtsd2ss	%xmm1, %xmm0, %xmm0
	vsubss	%xmm0, %xmm3, %xmm0
	vsubss	%xmm0, %xmm7, %xmm0
	vmulss	%xmm9, %xmm0, %xmm0
	vmovss	%xmm0, -2096948(%rbp)
	call	memcpy
	leaq	256(%r13), %rdi
	movl	$256, %edx
	leaq	-2097200(%rbp), %rsi
	call	memcpy
	vmovapd	-4194448(%rbp), %ymm15
	vmovaps	-4194416(%rbp), %ymm14
.L636:
	addq	$1024, %r13
	subl	$1, %r15d
	jne	.L639
	leaq	1024(%r12), %r8
	xorl	%edi, %edi
	movq	%r12, %rsi
	addl	$1, %edi
	cmpl	$128, %edi
	je	.L744
.L823:
	movq	%r8, %rdx
	movl	%edi, %eax
	.p2align 4,,10
	.p2align 3
.L641:
	movslq	%eax, %rcx
	vmovss	(%rdx), %xmm1
	addl	$1, %eax
	addq	$1024, %rdx
	leaq	(%rsi,%rcx,4), %rcx
	vmovss	(%rcx), %xmm0
	vmovss	%xmm1, (%rcx)
	vmovss	%xmm0, -1024(%rdx)
	cmpl	$128, %eax
	jne	.L641
	addl	$1, %edi
	addq	$1028, %r8
	addq	$1024, %rsi
	cmpl	$128, %edi
	jne	.L823
.L744:
	vmovaps	.LC32(%rip), %ymm12
	movq	%r12, %r13
	movl	$128, %r15d
	vmovapd	.LC38(%rip), %ymm13
	vmovapd	.LC39(%rip), %ymm10
	.p2align 4,,10
	.p2align 3
.L640:
	cmpl	$1, %ebx
	jbe	.L824
	vmovups	32(%r13), %ymm4
	xorl	%eax, %eax
	movabsq	$4603804719079489536, %rcx
	movabsq	$4602678819172646912, %rdx
	vmovups	0(%r13), %ymm1
	leaq	-4194352(%rbp), %rsi
	vmovq	%rdx, %xmm5
	movabsq	$4608871268660281344, %rdi
	vmovsd	.LC34(%rip), %xmm7
	leaq	8(%rsi), %r9
	vshufps	$136, %ymm4, %ymm1, %ymm3
	vshufps	$221, %ymm4, %ymm1, %ymm1
	vperm2f128	$3, %ymm3, %ymm3, %ymm2
	vshufps	$68, %ymm2, %ymm3, %ymm0
	vshufps	$238, %ymm2, %ymm3, %ymm2
	vinsertf128	$1, %xmm2, %ymm0, %ymm0
	vperm2f128	$3, %ymm1, %ymm1, %ymm2
	leaq	4(%rsi), %r8
	vshufps	$68, %ymm2, %ymm1, %ymm3
	vshufps	$238, %ymm2, %ymm1, %ymm2
	vinsertf128	$1, %xmm2, %ymm3, %ymm2
	vaddps	%ymm2, %ymm0, %ymm0
	vmovups	96(%r13), %ymm4
	vmovsd	%xmm7, -4194448(%rbp)
	leaq	-2097200(%rbp), %rsi
	vmovups	64(%r13), %ymm1
	addq	$4, %rsi
	vmulps	%ymm12, %ymm0, %ymm0
	vmovaps	%ymm0, -4194352(%rbp)
	vshufps	$136, %ymm4, %ymm1, %ymm3
	vshufps	$221, %ymm4, %ymm1, %ymm1
	vperm2f128	$3, %ymm3, %ymm3, %ymm2
	vshufps	$68, %ymm2, %ymm3, %ymm0
	vmovups	160(%r13), %ymm4
	vshufps	$238, %ymm2, %ymm3, %ymm2
	vinsertf128	$1, %xmm2, %ymm0, %ymm0
	vperm2f128	$3, %ymm1, %ymm1, %ymm2
	vshufps	$68, %ymm2, %ymm1, %ymm3
	vshufps	$238, %ymm2, %ymm1, %ymm2
	vinsertf128	$1, %xmm2, %ymm3, %ymm2
	vaddps	%ymm2, %ymm0, %ymm0
	vmovups	128(%r13), %ymm1
	vmulps	%ymm12, %ymm0, %ymm0
	vshufps	$136, %ymm4, %ymm1, %ymm3
	vmovaps	%ymm0, -4194320(%rbp)
	vshufps	$221, %ymm4, %ymm1, %ymm1
	vmovups	224(%r13), %ymm4
	vperm2f128	$3, %ymm3, %ymm3, %ymm2
	vshufps	$68, %ymm2, %ymm3, %ymm0
	vshufps	$238, %ymm2, %ymm3, %ymm2
	vinsertf128	$1, %xmm2, %ymm0, %ymm0
	vperm2f128	$3, %ymm1, %ymm1, %ymm2
	vshufps	$68, %ymm2, %ymm1, %ymm3
	vshufps	$238, %ymm2, %ymm1, %ymm2
	vmovups	192(%r13), %ymm1
	vinsertf128	$1, %xmm2, %ymm3, %ymm2
	vaddps	%ymm2, %ymm0, %ymm0
	vshufps	$136, %ymm4, %ymm1, %ymm3
	vshufps	$221, %ymm4, %ymm1, %ymm1
	vperm2f128	$3, %ymm3, %ymm3, %ymm2
	vmovups	288(%r13), %ymm4
	vmulps	%ymm12, %ymm0, %ymm0
	vmovaps	%ymm0, -4194288(%rbp)
	vshufps	$68, %ymm2, %ymm3, %ymm0
	vshufps	$238, %ymm2, %ymm3, %ymm2
	vinsertf128	$1, %xmm2, %ymm0, %ymm0
	vperm2f128	$3, %ymm1, %ymm1, %ymm2
	vshufps	$68, %ymm2, %ymm1, %ymm3
	vshufps	$238, %ymm2, %ymm1, %ymm2
	vmovups	256(%r13), %ymm1
	vinsertf128	$1, %xmm2, %ymm3, %ymm2
	vaddps	%ymm2, %ymm0, %ymm0
	vshufps	$136, %ymm4, %ymm1, %ymm3
	vshufps	$221, %ymm4, %ymm1, %ymm1
	vperm2f128	$3, %ymm3, %ymm3, %ymm2
	vmovups	352(%r13), %ymm4
	vmulps	%ymm12, %ymm0, %ymm0
	vmovaps	%ymm0, -4194256(%rbp)
	vshufps	$68, %ymm2, %ymm3, %ymm0
	vshufps	$238, %ymm2, %ymm3, %ymm2
	vinsertf128	$1, %xmm2, %ymm0, %ymm0
	vperm2f128	$3, %ymm1, %ymm1, %ymm2
	vshufps	$68, %ymm2, %ymm1, %ymm3
	vshufps	$238, %ymm2, %ymm1, %ymm2
	vmovups	320(%r13), %ymm1
	vinsertf128	$1, %xmm2, %ymm3, %ymm2
	vaddps	%ymm2, %ymm0, %ymm0
	vshufps	$136, %ymm4, %ymm1, %ymm3
	vshufps	$221, %ymm4, %ymm1, %ymm1
	vperm2f128	$3, %ymm3, %ymm3, %ymm2
	vmovups	416(%r13), %ymm4
	vmulps	%ymm12, %ymm0, %ymm0
	vmovaps	%ymm0, -4194224(%rbp)
	vshufps	$68, %ymm2, %ymm3, %ymm0
	vshufps	$238, %ymm2, %ymm3, %ymm2
	vinsertf128	$1, %xmm2, %ymm0, %ymm0
	vperm2f128	$3, %ymm1, %ymm1, %ymm2
	vshufps	$68, %ymm2, %ymm1, %ymm3
	vshufps	$238, %ymm2, %ymm1, %ymm2
	vmovups	384(%r13), %ymm1
	vinsertf128	$1, %xmm2, %ymm3, %ymm2
	vaddps	%ymm2, %ymm0, %ymm0
	vshufps	$136, %ymm4, %ymm1, %ymm3
	vshufps	$221, %ymm4, %ymm1, %ymm1
	vperm2f128	$3, %ymm3, %ymm3, %ymm2
	vmovups	480(%r13), %ymm4
	vmulps	%ymm12, %ymm0, %ymm0
	vmovaps	%ymm0, -4194192(%rbp)
	vshufps	$68, %ymm2, %ymm3, %ymm0
	vshufps	$238, %ymm2, %ymm3, %ymm2
	vinsertf128	$1, %xmm2, %ymm0, %ymm0
	vperm2f128	$3, %ymm1, %ymm1, %ymm2
	vshufps	$68, %ymm2, %ymm1, %ymm3
	vshufps	$238, %ymm2, %ymm1, %ymm2
	vmovups	448(%r13), %ymm1
	vinsertf128	$1, %xmm2, %ymm3, %ymm2
	vaddps	%ymm2, %ymm0, %ymm0
	vshufps	$136, %ymm4, %ymm1, %ymm3
	vshufps	$221, %ymm4, %ymm1, %ymm1
	vperm2f128	$3, %ymm3, %ymm3, %ymm2
	vxorpd	%xmm4, %xmm4, %xmm4
	vmulps	%ymm12, %ymm0, %ymm0
	vmovaps	%ymm0, -4194160(%rbp)
	vcvtss2sd	-4194352(%rbp), %xmm4, %xmm4
	vshufps	$68, %ymm2, %ymm3, %ymm0
	vshufps	$238, %ymm2, %ymm3, %ymm2
	vinsertf128	$1, %xmm2, %ymm0, %ymm0
	vperm2f128	$3, %ymm1, %ymm1, %ymm2
	vshufps	$68, %ymm2, %ymm1, %ymm3
	vshufps	$238, %ymm2, %ymm1, %ymm2
	vinsertf128	$1, %xmm2, %ymm3, %ymm2
	vaddps	%ymm2, %ymm0, %ymm0
	vxorpd	%xmm2, %xmm2, %xmm2
	vcvtss2sd	-4194344(%rbp), %xmm2, %xmm2
	vmulsd	%xmm7, %xmm2, %xmm2
	vmovq	%rcx, %xmm7
	vmulsd	%xmm7, %xmm4, %xmm1
	vmovq	%rdi, %xmm7
	vmulps	%ymm12, %ymm0, %ymm0
	vmovaps	%ymm0, -4194128(%rbp)
	vxorpd	%xmm0, %xmm0, %xmm0
	vcvtss2sd	-4194348(%rbp), %xmm0, %xmm0
	vmulsd	%xmm5, %xmm0, %xmm5
	vmovss	4(%r13), %xmm0
	vsubss	0(%r13), %xmm0, %xmm3
	vmulsd	%xmm7, %xmm4, %xmm0
	vmovss	.LC37(%rip), %xmm7
	vmovss	%xmm7, -4194416(%rbp)
	vaddsd	%xmm5, %xmm1, %xmm1
	vsubsd	%xmm5, %xmm0, %xmm0
	vsubsd	%xmm2, %xmm1, %xmm1
	vaddsd	%xmm0, %xmm2, %xmm0
	vcvtsd2ss	%xmm1, %xmm1, %xmm1
	vcvtsd2ss	%xmm0, %xmm0, %xmm0
	vsubss	%xmm0, %xmm1, %xmm0
	vsubss	%xmm0, %xmm3, %xmm0
	vmulss	%xmm7, %xmm0, %xmm0
	vmovss	%xmm0, -2097200(%rbp)
	.p2align 4,,10
	.p2align 3
.L648:
	vmovups	(%r8,%rax), %ymm3
	vmovups	8(%r13,%rax,2), %ymm9
	vmovups	(%r9,%rax), %ymm2
	vcvtps2pd	%xmm3, %ymm1
	vextractf128	$0x1, %ymm3, %xmm0
	vcvtps2pd	%xmm0, %ymm0
	vmovups	40(%r13,%rax,2), %ymm6
	vmovaps	-4194352(%rbp,%rax), %ymm4
	vcvtps2pd	%xmm2, %ymm7
	vextractf128	$0x1, %ymm2, %xmm2
	vcvtps2pd	%xmm2, %ymm2
	vshufps	$221, %ymm6, %ymm9, %ymm11
	vmulpd	%ymm13, %ymm2, %ymm5
	vshufps	$136, %ymm6, %ymm9, %ymm6
	vperm2f128	$3, %ymm11, %ymm11, %ymm2
	vcvtps2pd	%xmm4, %ymm8
	vshufps	$68, %ymm2, %ymm11, %ymm3
	vextractf128	$0x1, %ymm4, %xmm4
	vcvtps2pd	%xmm4, %ymm4
	vshufps	$238, %ymm2, %ymm11, %ymm2
	vinsertf128	$1, %xmm2, %ymm3, %ymm11
	vmulpd	%ymm13, %ymm7, %ymm7
	vperm2f128	$3, %ymm6, %ymm6, %ymm2
	vshufps	$68, %ymm2, %ymm6, %ymm3
	vshufps	$238, %ymm2, %ymm6, %ymm2
	vmulpd	%ymm10, %ymm4, %ymm6
	vinsertf128	$1, %xmm2, %ymm3, %ymm2
	vaddpd	%ymm0, %ymm6, %ymm6
	vmulpd	%ymm13, %ymm4, %ymm4
	vsubps	%ymm2, %ymm11, %ymm3
	vmulpd	%ymm10, %ymm8, %ymm2
	vmulpd	%ymm13, %ymm8, %ymm8
	vaddpd	%ymm1, %ymm2, %ymm2
	vaddpd	%ymm4, %ymm0, %ymm0
	vaddpd	%ymm8, %ymm1, %ymm1
	vaddpd	%ymm7, %ymm2, %ymm2
	vaddpd	%ymm5, %ymm6, %ymm6
	vsubpd	%ymm7, %ymm1, %ymm1
	vsubpd	%ymm5, %ymm0, %ymm0
	vcvtpd2psy	%ymm2, %xmm2
	vcvtpd2psy	%ymm6, %xmm6
	vinsertf128	$0x1, %xmm6, %ymm2, %ymm2
	vcvtpd2psy	%ymm1, %xmm1
	vcvtpd2psy	%ymm0, %xmm0
	vinsertf128	$0x1, %xmm0, %ymm1, %ymm1
	vsubps	%ymm1, %ymm2, %ymm0
	vsubps	%ymm0, %ymm3, %ymm0
	vmulps	%ymm12, %ymm0, %ymm0
	vmovups	%ymm0, (%rsi,%rax)
	addq	$32, %rax
	cmpq	$224, %rax
	jne	.L648
	vmovaps	%ymm14, -4194576(%rbp)
	vxorpd	%xmm3, %xmm3, %xmm3
	vcvtss2sd	-4194128(%rbp), %xmm3, %xmm3
	vxorpd	%xmm2, %xmm2, %xmm2
	vmovsd	-4194448(%rbp), %xmm14
	vcvtss2sd	-4194120(%rbp), %xmm2, %xmm2
	vxorpd	%xmm0, %xmm0, %xmm0
	vcvtss2sd	-4194124(%rbp), %xmm0, %xmm0
	vmovsd	.LC40(%rip), %xmm4
	vmovapd	%ymm15, -4194608(%rbp)
	leaq	-4194352(%rbp), %rsi
	vmulsd	%xmm14, %xmm3, %xmm7
	vmovss	-4194416(%rbp), %xmm15
	vmovapd	%ymm10, -4194544(%rbp)
	vmulsd	%xmm4, %xmm3, %xmm6
	vmovapd	%ymm13, -4194512(%rbp)
	vmovss	460(%r13), %xmm1
	vmulsd	%xmm14, %xmm2, %xmm5
	vmovaps	%ymm12, -4194480(%rbp)
	vsubss	456(%r13), %xmm1, %xmm1
	vmulsd	%xmm14, %xmm0, %xmm8
	vaddsd	%xmm7, %xmm0, %xmm7
	vaddsd	%xmm0, %xmm6, %xmm6
	vsubsd	%xmm5, %xmm7, %xmm7
	vaddsd	%xmm5, %xmm6, %xmm6
	vaddsd	%xmm8, %xmm2, %xmm8
	vcvtsd2ss	%xmm7, %xmm7, %xmm7
	vcvtsd2ss	%xmm6, %xmm6, %xmm6
	vsubss	%xmm7, %xmm6, %xmm3
	vmovss	468(%r13), %xmm6
	vsubss	464(%r13), %xmm6, %xmm9
	vmulsd	%xmm4, %xmm0, %xmm6
	vsubss	%xmm3, %xmm1, %xmm1
	vmulss	%xmm15, %xmm1, %xmm1
	vaddsd	%xmm6, %xmm2, %xmm6
	vmulsd	%xmm4, %xmm2, %xmm2
	vmovss	%xmm1, -2096972(%rbp)
	vxorpd	%xmm1, %xmm1, %xmm1
	vcvtss2sd	-4194116(%rbp), %xmm1, %xmm1
	vmulsd	%xmm14, %xmm1, %xmm3
	vaddsd	%xmm2, %xmm1, %xmm2
	vaddsd	%xmm3, %xmm6, %xmm6
	vsubsd	%xmm3, %xmm8, %xmm8
	vcvtsd2ss	%xmm6, %xmm6, %xmm6
	vcvtsd2ss	%xmm8, %xmm8, %xmm8
	vsubss	%xmm8, %xmm6, %xmm7
	vaddsd	%xmm1, %xmm5, %xmm8
	vsubss	%xmm7, %xmm9, %xmm0
	vmovss	476(%r13), %xmm7
	vsubss	472(%r13), %xmm7, %xmm7
	vmulss	%xmm15, %xmm0, %xmm0
	vmovss	%xmm0, -2096968(%rbp)
	vxorpd	%xmm0, %xmm0, %xmm0
	vcvtss2sd	-4194112(%rbp), %xmm0, %xmm0
	vmulsd	%xmm14, %xmm0, %xmm6
	vaddsd	%xmm3, %xmm0, %xmm9
	vaddsd	%xmm6, %xmm2, %xmm2
	vsubsd	%xmm6, %xmm8, %xmm8
	vcvtsd2ss	%xmm2, %xmm2, %xmm2
	vcvtsd2ss	%xmm8, %xmm8, %xmm8
	vsubss	%xmm8, %xmm2, %xmm5
	vmulsd	%xmm4, %xmm1, %xmm8
	vxorps	%xmm1, %xmm1, %xmm1
	vsubss	%xmm5, %xmm7, %xmm2
	vxorpd	%xmm5, %xmm5, %xmm5
	vcvtss2sd	-4194108(%rbp), %xmm5, %xmm5
	vmovss	484(%r13), %xmm7
	vsubss	480(%r13), %xmm7, %xmm7
	vaddsd	%xmm0, %xmm8, %xmm8
	vmulsd	%xmm4, %xmm0, %xmm0
	vmulss	%xmm15, %xmm2, %xmm2
	vmulsd	%xmm4, %xmm5, %xmm4
	vmovss	%xmm2, -2096964(%rbp)
	vmulsd	%xmm14, %xmm5, %xmm2
	vaddsd	%xmm5, %xmm0, %xmm0
	vaddsd	%xmm2, %xmm8, %xmm8
	vsubsd	%xmm2, %xmm9, %xmm9
	vcvtsd2ss	%xmm8, %xmm1, %xmm1
	vcvtsd2ss	%xmm9, %xmm9, %xmm9
	vsubss	%xmm9, %xmm1, %xmm3
	vsubss	%xmm3, %xmm7, %xmm1
	vxorpd	%xmm7, %xmm7, %xmm7
	vcvtss2sd	-4194104(%rbp), %xmm7, %xmm7
	vmulsd	%xmm14, %xmm7, %xmm8
	vmovss	492(%r13), %xmm3
	vsubss	488(%r13), %xmm3, %xmm3
	vmulss	%xmm15, %xmm1, %xmm1
	vaddsd	%xmm8, %xmm0, %xmm0
	vmovss	%xmm1, -2096960(%rbp)
	vaddsd	%xmm6, %xmm5, %xmm1
	vcvtsd2ss	%xmm0, %xmm0, %xmm0
	vaddsd	%xmm2, %xmm7, %xmm6
	vaddsd	%xmm7, %xmm4, %xmm5
	vsubsd	%xmm8, %xmm1, %xmm1
	vcvtsd2ss	%xmm1, %xmm1, %xmm1
	vsubss	%xmm1, %xmm0, %xmm0
	vsubss	%xmm0, %xmm3, %xmm0
	vxorpd	%xmm3, %xmm3, %xmm3
	vcvtss2sd	-4194100(%rbp), %xmm3, %xmm3
	vmulsd	%xmm14, %xmm3, %xmm1
	vmulss	%xmm15, %xmm0, %xmm0
	vaddsd	%xmm1, %xmm5, %xmm5
	vsubsd	%xmm1, %xmm6, %xmm1
	vmovss	%xmm0, -2096956(%rbp)
	vmovss	500(%r13), %xmm0
	vsubss	496(%r13), %xmm0, %xmm0
	vcvtsd2ss	%xmm5, %xmm5, %xmm5
	vcvtsd2ss	%xmm1, %xmm1, %xmm1
	vsubss	%xmm1, %xmm5, %xmm1
	vmovq	%rdx, %xmm5
	movl	$256, %edx
	vmulsd	%xmm5, %xmm7, %xmm7
	vsubss	%xmm1, %xmm0, %xmm0
	vmovq	%rdi, %xmm1
	movq	%r13, %rdi
	vmulsd	%xmm1, %xmm3, %xmm1
	vsubsd	%xmm7, %xmm2, %xmm2
	vmulss	%xmm15, %xmm0, %xmm0
	vaddsd	%xmm4, %xmm7, %xmm4
	vmovq	%rcx, %xmm7
	vaddsd	%xmm1, %xmm2, %xmm1
	vmulsd	%xmm7, %xmm3, %xmm2
	vmovss	%xmm0, -2096952(%rbp)
	vmovss	508(%r13), %xmm0
	vsubss	504(%r13), %xmm0, %xmm5
	vcvtsd2ss	%xmm1, %xmm1, %xmm1
	vaddsd	%xmm2, %xmm4, %xmm2
	vcvtsd2ss	%xmm2, %xmm2, %xmm2
	vsubss	%xmm2, %xmm1, %xmm0
	vsubss	%xmm0, %xmm5, %xmm0
	vmulss	%xmm15, %xmm0, %xmm0
	vmovss	%xmm0, -2096948(%rbp)
	call	memcpy
	leaq	256(%r13), %rdi
	movl	$256, %edx
	leaq	-2097200(%rbp), %rsi
	call	memcpy
	vmovapd	-4194608(%rbp), %ymm15
	vmovaps	-4194576(%rbp), %ymm14
	vmovapd	-4194544(%rbp), %ymm10
	vmovapd	-4194512(%rbp), %ymm13
	vmovaps	-4194480(%rbp), %ymm12
.L646:
	addq	$1024, %r13
	subl	$1, %r15d
	jne	.L640
	addq	$262144, %r12
	cmpq	-4194616(%rbp), %r12
	jne	.L649
	movl	-4194632(%rbp), %r15d
	xorl	%r10d, %r10d
	movq	-4194376(%rbp), %r11
.L650:
	xorl	%r8d, %r8d
	movslq	%r10d, %rdi
	movq	-4194360(%rbp), %rsi
	movq	%r11, %r9
	addl	$1, %r8d
	salq	$8, %rdi
	cmpl	$128, %r8d
	je	.L651
.L825:
	movq	%r9, %rcx
	movl	%r8d, %edx
	.p2align 4,,10
	.p2align 3
.L652:
	movslq	%edx, %rax
	vmovss	(%rcx), %xmm1
	addl	$1, %edx
	addq	$262144, %rcx
	addq	%rdi, %rax
	vmovss	(%rsi,%rax,4), %xmm0
	vmovss	%xmm1, (%rsi,%rax,4)
	vmovss	%xmm0, -262144(%rcx)
	cmpl	$128, %edx
	jne	.L652
	addl	$1, %r8d
	addq	$262148, %r9
	addq	$262144, %rsi
	cmpl	$128, %r8d
	jne	.L825
.L651:
	addl	$1, %r10d
	addq	$1024, %r11
	cmpl	$128, %r10d
	jne	.L650
	movq	-4194360(%rbp), %rax
	vmovaps	.LC32(%rip), %ymm14
	vmovapd	.LC38(%rip), %ymm13
	vmovapd	.LC39(%rip), %ymm15
	vmovapd	.LC23(%rip), %ymm12
	movq	%rax, -4194576(%rbp)
.L655:
	movq	-4194576(%rbp), %r13
	movl	$128, %r12d
	.p2align 4,,10
	.p2align 3
.L662:
	cmpl	$1, %ebx
	jbe	.L826
	vmovups	32(%r13), %ymm4
	vxorpd	%xmm5, %xmm5, %xmm5
	leaq	8(%r13), %rdx
	xorl	%eax, %eax
	vmovups	0(%r13), %ymm1
	leaq	-4194352(%rbp), %r11
	movabsq	$4602678819172646912, %rsi
	movabsq	$4603804719079489536, %rcx
	vmovsd	.LC34(%rip), %xmm11
	leaq	8(%r11), %r10
	vmovq	%rsi, %xmm7
	movabsq	$4608871268660281344, %rdi
	vshufps	$136, %ymm4, %ymm1, %ymm3
	vshufps	$221, %ymm4, %ymm1, %ymm1
	vperm2f128	$3, %ymm3, %ymm3, %ymm2
	vshufps	$68, %ymm2, %ymm3, %ymm0
	vshufps	$238, %ymm2, %ymm3, %ymm2
	vinsertf128	$1, %xmm2, %ymm0, %ymm0
	vperm2f128	$3, %ymm1, %ymm1, %ymm2
	vshufps	$68, %ymm2, %ymm1, %ymm3
	vshufps	$238, %ymm2, %ymm1, %ymm2
	vinsertf128	$1, %xmm2, %ymm3, %ymm2
	vaddps	%ymm2, %ymm0, %ymm0
	vmovups	96(%r13), %ymm4
	vmovups	64(%r13), %ymm1
	leaq	4(%r11), %r9
	leaq	-2097200(%rbp), %r11
	vshufps	$136, %ymm4, %ymm1, %ymm3
	vmulps	%ymm14, %ymm0, %ymm0
	vshufps	$221, %ymm4, %ymm1, %ymm1
	vmovaps	%ymm0, -4194352(%rbp)
	vperm2f128	$3, %ymm3, %ymm3, %ymm2
	vshufps	$68, %ymm2, %ymm3, %ymm0
	vcvtss2sd	-4194352(%rbp), %xmm5, %xmm5
	leaq	4(%r11), %r8
	vmovups	160(%r13), %ymm4
	vshufps	$238, %ymm2, %ymm3, %ymm2
	vinsertf128	$1, %xmm2, %ymm0, %ymm0
	vperm2f128	$3, %ymm1, %ymm1, %ymm2
	vshufps	$68, %ymm2, %ymm1, %ymm3
	vshufps	$238, %ymm2, %ymm1, %ymm2
	vinsertf128	$1, %xmm2, %ymm3, %ymm2
	vaddps	%ymm2, %ymm0, %ymm0
	vmovups	128(%r13), %ymm1
	vmulps	%ymm14, %ymm0, %ymm0
	vshufps	$136, %ymm4, %ymm1, %ymm3
	vmovaps	%ymm0, -4194320(%rbp)
	vshufps	$221, %ymm4, %ymm1, %ymm1
	vmovups	224(%r13), %ymm4
	vperm2f128	$3, %ymm3, %ymm3, %ymm2
	vshufps	$68, %ymm2, %ymm3, %ymm0
	vshufps	$238, %ymm2, %ymm3, %ymm2
	vinsertf128	$1, %xmm2, %ymm0, %ymm0
	vperm2f128	$3, %ymm1, %ymm1, %ymm2
	vshufps	$68, %ymm2, %ymm1, %ymm3
	vshufps	$238, %ymm2, %ymm1, %ymm2
	vmovups	192(%r13), %ymm1
	vinsertf128	$1, %xmm2, %ymm3, %ymm2
	vaddps	%ymm2, %ymm0, %ymm0
	vshufps	$136, %ymm4, %ymm1, %ymm3
	vshufps	$221, %ymm4, %ymm1, %ymm1
	vperm2f128	$3, %ymm3, %ymm3, %ymm2
	vmovups	288(%r13), %ymm4
	vmulps	%ymm14, %ymm0, %ymm0
	vmovaps	%ymm0, -4194288(%rbp)
	vshufps	$68, %ymm2, %ymm3, %ymm0
	vshufps	$238, %ymm2, %ymm3, %ymm2
	vinsertf128	$1, %xmm2, %ymm0, %ymm0
	vperm2f128	$3, %ymm1, %ymm1, %ymm2
	vshufps	$68, %ymm2, %ymm1, %ymm3
	vshufps	$238, %ymm2, %ymm1, %ymm2
	vmovups	256(%r13), %ymm1
	vinsertf128	$1, %xmm2, %ymm3, %ymm2
	vaddps	%ymm2, %ymm0, %ymm0
	vshufps	$136, %ymm4, %ymm1, %ymm3
	vshufps	$221, %ymm4, %ymm1, %ymm1
	vperm2f128	$3, %ymm3, %ymm3, %ymm2
	vmovups	352(%r13), %ymm4
	vmulps	%ymm14, %ymm0, %ymm0
	vmovaps	%ymm0, -4194256(%rbp)
	vshufps	$68, %ymm2, %ymm3, %ymm0
	vshufps	$238, %ymm2, %ymm3, %ymm2
	vinsertf128	$1, %xmm2, %ymm0, %ymm0
	vperm2f128	$3, %ymm1, %ymm1, %ymm2
	vshufps	$68, %ymm2, %ymm1, %ymm3
	vshufps	$238, %ymm2, %ymm1, %ymm2
	vmovups	320(%r13), %ymm1
	vinsertf128	$1, %xmm2, %ymm3, %ymm2
	vaddps	%ymm2, %ymm0, %ymm0
	vshufps	$136, %ymm4, %ymm1, %ymm3
	vshufps	$221, %ymm4, %ymm1, %ymm1
	vperm2f128	$3, %ymm3, %ymm3, %ymm2
	vmovups	416(%r13), %ymm4
	vmulps	%ymm14, %ymm0, %ymm0
	vmovaps	%ymm0, -4194224(%rbp)
	vshufps	$68, %ymm2, %ymm3, %ymm0
	vshufps	$238, %ymm2, %ymm3, %ymm2
	vinsertf128	$1, %xmm2, %ymm0, %ymm0
	vperm2f128	$3, %ymm1, %ymm1, %ymm2
	vshufps	$68, %ymm2, %ymm1, %ymm3
	vshufps	$238, %ymm2, %ymm1, %ymm2
	vmovups	384(%r13), %ymm1
	vinsertf128	$1, %xmm2, %ymm3, %ymm2
	vaddps	%ymm2, %ymm0, %ymm0
	vshufps	$136, %ymm4, %ymm1, %ymm3
	vshufps	$221, %ymm4, %ymm1, %ymm1
	vperm2f128	$3, %ymm3, %ymm3, %ymm2
	vmovups	480(%r13), %ymm4
	vmulps	%ymm14, %ymm0, %ymm0
	vmovaps	%ymm0, -4194192(%rbp)
	vshufps	$68, %ymm2, %ymm3, %ymm0
	vshufps	$238, %ymm2, %ymm3, %ymm2
	vinsertf128	$1, %xmm2, %ymm0, %ymm0
	vperm2f128	$3, %ymm1, %ymm1, %ymm2
	vshufps	$68, %ymm2, %ymm1, %ymm3
	vshufps	$238, %ymm2, %ymm1, %ymm2
	vmovups	448(%r13), %ymm1
	vinsertf128	$1, %xmm2, %ymm3, %ymm2
	vaddps	%ymm2, %ymm0, %ymm0
	vshufps	$136, %ymm4, %ymm1, %ymm3
	vshufps	$221, %ymm4, %ymm1, %ymm1
	vperm2f128	$3, %ymm3, %ymm3, %ymm2
	vmulps	%ymm14, %ymm0, %ymm0
	vmovaps	%ymm0, -4194160(%rbp)
	vshufps	$68, %ymm2, %ymm3, %ymm0
	vshufps	$238, %ymm2, %ymm3, %ymm2
	vinsertf128	$1, %xmm2, %ymm0, %ymm0
	vperm2f128	$3, %ymm1, %ymm1, %ymm2
	vshufps	$68, %ymm2, %ymm1, %ymm3
	vshufps	$238, %ymm2, %ymm1, %ymm2
	vinsertf128	$1, %xmm2, %ymm3, %ymm2
	vaddps	%ymm2, %ymm0, %ymm0
	vmulps	%ymm14, %ymm0, %ymm0
	vmovaps	%ymm0, -4194128(%rbp)
	vxorpd	%xmm0, %xmm0, %xmm0
	vcvtss2sd	-4194348(%rbp), %xmm0, %xmm0
	vmulsd	%xmm7, %xmm0, %xmm4
	vmovq	%rcx, %xmm7
	vxorpd	%xmm0, %xmm0, %xmm0
	vcvtss2sd	-4194344(%rbp), %xmm0, %xmm0
	vmulsd	%xmm7, %xmm5, %xmm1
	vmovq	%rdi, %xmm7
	vmulsd	%xmm11, %xmm0, %xmm3
	vmovss	4(%r13), %xmm0
	vsubss	0(%r13), %xmm0, %xmm2
	vmulsd	%xmm7, %xmm5, %xmm0
	vmovss	.LC37(%rip), %xmm7
	vaddsd	%xmm4, %xmm1, %xmm1
	vmovss	%xmm7, -4194416(%rbp)
	vsubsd	%xmm4, %xmm0, %xmm0
	vsubsd	%xmm3, %xmm1, %xmm1
	vaddsd	%xmm0, %xmm3, %xmm0
	vcvtsd2ss	%xmm1, %xmm1, %xmm1
	vcvtsd2ss	%xmm0, %xmm0, %xmm0
	vsubss	%xmm0, %xmm1, %xmm0
	vsubss	%xmm0, %xmm2, %xmm0
	vmulss	%xmm7, %xmm0, %xmm0
	vmovss	%xmm0, -2097200(%rbp)
	.p2align 4,,10
	.p2align 3
.L661:
	vmovups	(%r9,%rax), %ymm3
	vmovups	(%rdx,%rax,2), %ymm9
	vmovups	32(%rdx,%rax,2), %ymm6
	vcvtps2pd	%xmm3, %ymm1
	vextractf128	$0x1, %ymm3, %xmm0
	vcvtps2pd	%xmm0, %ymm0
	vmovups	(%r10,%rax), %ymm2
	vmovaps	-4194352(%rbp,%rax), %ymm4
	vshufps	$221, %ymm6, %ymm9, %ymm10
	vshufps	$136, %ymm6, %ymm9, %ymm6
	vcvtps2pd	%xmm2, %ymm7
	vextractf128	$0x1, %ymm2, %xmm2
	vcvtps2pd	%xmm2, %ymm2
	vmulpd	%ymm13, %ymm2, %ymm5
	vcvtps2pd	%xmm4, %ymm8
	vperm2f128	$3, %ymm10, %ymm10, %ymm2
	vextractf128	$0x1, %ymm4, %xmm4
	vcvtps2pd	%xmm4, %ymm4
	vshufps	$68, %ymm2, %ymm10, %ymm3
	vshufps	$238, %ymm2, %ymm10, %ymm2
	vinsertf128	$1, %xmm2, %ymm3, %ymm10
	vperm2f128	$3, %ymm6, %ymm6, %ymm2
	vshufps	$68, %ymm2, %ymm6, %ymm3
	vshufps	$238, %ymm2, %ymm6, %ymm2
	vmulpd	%ymm15, %ymm4, %ymm6
	vinsertf128	$1, %xmm2, %ymm3, %ymm2
	vaddpd	%ymm0, %ymm6, %ymm6
	vmulpd	%ymm13, %ymm4, %ymm4
	vmulpd	%ymm13, %ymm7, %ymm7
	vsubps	%ymm2, %ymm10, %ymm3
	vmulpd	%ymm15, %ymm8, %ymm2
	vmulpd	%ymm13, %ymm8, %ymm8
	vaddpd	%ymm1, %ymm2, %ymm2
	vaddpd	%ymm4, %ymm0, %ymm0
	vaddpd	%ymm8, %ymm1, %ymm1
	vaddpd	%ymm7, %ymm2, %ymm2
	vaddpd	%ymm5, %ymm6, %ymm6
	vsubpd	%ymm7, %ymm1, %ymm1
	vsubpd	%ymm5, %ymm0, %ymm0
	vcvtpd2psy	%ymm2, %xmm2
	vcvtpd2psy	%ymm6, %xmm6
	vinsertf128	$0x1, %xmm6, %ymm2, %ymm2
	vcvtpd2psy	%ymm1, %xmm1
	vcvtpd2psy	%ymm0, %xmm0
	vinsertf128	$0x1, %xmm0, %ymm1, %ymm1
	vsubps	%ymm1, %ymm2, %ymm0
	vsubps	%ymm0, %ymm3, %ymm0
	vmulps	%ymm14, %ymm0, %ymm0
	vmovups	%ymm0, (%r8,%rax)
	addq	$32, %rax
	cmpq	$224, %rax
	jne	.L661
	vxorpd	%xmm3, %xmm3, %xmm3
	vcvtss2sd	-4194128(%rbp), %xmm3, %xmm3
	vmulsd	%xmm11, %xmm3, %xmm6
	vmovsd	.LC40(%rip), %xmm4
	vxorpd	%xmm2, %xmm2, %xmm2
	vcvtss2sd	-4194120(%rbp), %xmm2, %xmm2
	vmovss	460(%r13), %xmm1
	vmulsd	%xmm11, %xmm2, %xmm5
	vsubss	456(%r13), %xmm1, %xmm7
	vmulsd	%xmm4, %xmm3, %xmm1
	vxorpd	%xmm0, %xmm0, %xmm0
	vcvtss2sd	-4194124(%rbp), %xmm0, %xmm0
	vmovaps	%ymm14, -4194448(%rbp)
	vmovss	-4194416(%rbp), %xmm14
	vmulsd	%xmm11, %xmm0, %xmm8
	movl	$256, %edx
	vmovapd	%ymm12, -4194544(%rbp)
	vaddsd	%xmm6, %xmm0, %xmm3
	vmovapd	%ymm15, -4194512(%rbp)
	vmovapd	%ymm13, -4194480(%rbp)
	vaddsd	%xmm0, %xmm1, %xmm1
	vsubsd	%xmm5, %xmm3, %xmm6
	vxorps	%xmm3, %xmm3, %xmm3
	vaddsd	%xmm8, %xmm2, %xmm8
	vaddsd	%xmm5, %xmm1, %xmm1
	vcvtsd2ss	%xmm6, %xmm3, %xmm3
	vcvtsd2ss	%xmm1, %xmm1, %xmm1
	vsubss	%xmm3, %xmm1, %xmm3
	vmovss	468(%r13), %xmm1
	vsubss	464(%r13), %xmm1, %xmm1
	vsubss	%xmm3, %xmm7, %xmm3
	vmulsd	%xmm4, %xmm0, %xmm7
	vmulss	%xmm14, %xmm3, %xmm3
	vaddsd	%xmm7, %xmm2, %xmm7
	vmulsd	%xmm4, %xmm2, %xmm2
	vmovss	%xmm3, -2096972(%rbp)
	vxorpd	%xmm3, %xmm3, %xmm3
	vcvtss2sd	-4194116(%rbp), %xmm3, %xmm3
	vmulsd	%xmm11, %xmm3, %xmm6
	vaddsd	%xmm3, %xmm5, %xmm5
	vaddsd	%xmm3, %xmm2, %xmm2
	vmulsd	%xmm4, %xmm3, %xmm3
	vaddsd	%xmm6, %xmm7, %xmm7
	vsubsd	%xmm6, %xmm8, %xmm8
	vcvtsd2ss	%xmm7, %xmm7, %xmm7
	vcvtsd2ss	%xmm8, %xmm8, %xmm8
	vsubss	%xmm8, %xmm7, %xmm0
	vmovss	476(%r13), %xmm8
	vsubss	472(%r13), %xmm8, %xmm8
	vsubss	%xmm0, %xmm1, %xmm0
	vxorps	%xmm1, %xmm1, %xmm1
	vmulss	%xmm14, %xmm0, %xmm0
	vmovss	%xmm0, -2096968(%rbp)
	vxorpd	%xmm0, %xmm0, %xmm0
	vcvtss2sd	-4194112(%rbp), %xmm0, %xmm0
	vmulsd	%xmm11, %xmm0, %xmm7
	vaddsd	%xmm0, %xmm3, %xmm3
	vaddsd	%xmm6, %xmm0, %xmm6
	vaddsd	%xmm7, %xmm2, %xmm2
	vsubsd	%xmm7, %xmm5, %xmm5
	vcvtsd2ss	%xmm2, %xmm1, %xmm1
	vcvtsd2ss	%xmm5, %xmm5, %xmm5
	vsubss	%xmm5, %xmm1, %xmm1
	vxorpd	%xmm5, %xmm5, %xmm5
	vcvtss2sd	-4194108(%rbp), %xmm5, %xmm5
	vmulsd	%xmm11, %xmm5, %xmm2
	vsubss	%xmm1, %xmm8, %xmm1
	vmovss	484(%r13), %xmm8
	vsubss	480(%r13), %xmm8, %xmm8
	vmulss	%xmm14, %xmm1, %xmm1
	vaddsd	%xmm2, %xmm3, %xmm3
	vsubsd	%xmm2, %xmm6, %xmm6
	vmovss	%xmm1, -2096964(%rbp)
	vcvtsd2ss	%xmm6, %xmm6, %xmm6
	vxorps	%xmm1, %xmm1, %xmm1
	vcvtsd2ss	%xmm3, %xmm1, %xmm1
	vmovss	492(%r13), %xmm3
	vsubss	%xmm6, %xmm1, %xmm1
	vxorpd	%xmm6, %xmm6, %xmm6
	vcvtss2sd	-4194104(%rbp), %xmm6, %xmm6
	vsubss	488(%r13), %xmm3, %xmm3
	vsubss	%xmm1, %xmm8, %xmm1
	vmulsd	%xmm11, %xmm6, %xmm8
	vmulss	%xmm14, %xmm1, %xmm1
	vmovss	%xmm1, -2096960(%rbp)
	vmulsd	%xmm4, %xmm0, %xmm1
	vaddsd	%xmm7, %xmm5, %xmm0
	vmulsd	%xmm4, %xmm5, %xmm4
	vaddsd	%xmm5, %xmm1, %xmm1
	vaddsd	%xmm2, %xmm6, %xmm5
	vaddsd	%xmm8, %xmm1, %xmm1
	vsubsd	%xmm8, %xmm0, %xmm8
	vxorps	%xmm0, %xmm0, %xmm0
	vcvtsd2ss	%xmm1, %xmm1, %xmm1
	vcvtsd2ss	%xmm8, %xmm0, %xmm0
	vsubss	%xmm0, %xmm1, %xmm0
	vaddsd	%xmm6, %xmm4, %xmm1
	vsubss	%xmm0, %xmm3, %xmm0
	vxorpd	%xmm3, %xmm3, %xmm3
	vcvtss2sd	-4194100(%rbp), %xmm3, %xmm3
	vmulsd	%xmm11, %xmm3, %xmm11
	vmulss	%xmm14, %xmm0, %xmm0
	vaddsd	%xmm11, %xmm1, %xmm1
	vsubsd	%xmm11, %xmm5, %xmm11
	vxorps	%xmm5, %xmm5, %xmm5
	vmovss	%xmm0, -2096956(%rbp)
	vmovss	500(%r13), %xmm0
	vsubss	496(%r13), %xmm0, %xmm0
	vcvtsd2ss	%xmm1, %xmm1, %xmm1
	vcvtsd2ss	%xmm11, %xmm5, %xmm5
	vsubss	%xmm5, %xmm1, %xmm1
	vmovq	%rsi, %xmm5
	vmulsd	%xmm5, %xmm6, %xmm6
	leaq	-4194352(%rbp), %rsi
	vsubss	%xmm1, %xmm0, %xmm0
	vmovq	%rdi, %xmm1
	movq	%r13, %rdi
	vmulsd	%xmm1, %xmm3, %xmm1
	vsubsd	%xmm6, %xmm2, %xmm2
	vmulss	%xmm14, %xmm0, %xmm0
	vaddsd	%xmm4, %xmm6, %xmm6
	vmovq	%rcx, %xmm4
	vaddsd	%xmm1, %xmm2, %xmm1
	vmulsd	%xmm4, %xmm3, %xmm2
	vmovss	%xmm0, -2096952(%rbp)
	vmovss	508(%r13), %xmm0
	vsubss	504(%r13), %xmm0, %xmm5
	vcvtsd2ss	%xmm1, %xmm1, %xmm1
	vaddsd	%xmm2, %xmm6, %xmm2
	vcvtsd2ss	%xmm2, %xmm2, %xmm2
	vsubss	%xmm2, %xmm1, %xmm0
	vsubss	%xmm0, %xmm5, %xmm0
	vmulss	%xmm14, %xmm0, %xmm0
	vmovss	%xmm0, -2096948(%rbp)
	call	memcpy
	leaq	256(%r13), %rdi
	movl	$256, %edx
	leaq	-2097200(%rbp), %rsi
	call	memcpy
	vmovapd	-4194544(%rbp), %ymm12
	vmovapd	-4194512(%rbp), %ymm15
	vmovapd	-4194480(%rbp), %ymm13
	vmovaps	-4194448(%rbp), %ymm14
.L659:
	addq	$1024, %r13
	subl	$1, %r12d
	jne	.L662
	addq	$262144, -4194576(%rbp)
	movq	-4194576(%rbp), %rax
	cmpq	%rax, -4194616(%rbp)
	jne	.L655
	movq	-4194368(%rbp), %rax
	movq	-4194360(%rbp), %r9
	vmovapd	.LC38(%rip), %ymm15
	leaq	16777240(%rax), %r12
.L676:
	movq	%r9, %rax
	movl	$64, %edx
	vmovapd	.LC31(%rip), %ymm11
	jmp	.L668
.L664:
	vmovups	32(%rax), %ymm4
	addq	$1024, %rax
	vmovups	-1024(%rax), %ymm0
	vmovups	-928(%rax), %ymm5
	vshufps	$136, %ymm4, %ymm0, %ymm3
	vshufps	$221, %ymm4, %ymm0, %ymm0
	vperm2f128	$3, %ymm3, %ymm3, %ymm2
	vshufps	$68, %ymm2, %ymm3, %ymm1
	vshufps	$238, %ymm2, %ymm3, %ymm2
	vinsertf128	$1, %xmm2, %ymm1, %ymm1
	vperm2f128	$3, %ymm0, %ymm0, %ymm2
	vshufps	$68, %ymm2, %ymm0, %ymm3
	vshufps	$238, %ymm2, %ymm0, %ymm2
	vmovups	-960(%rax), %ymm0
	vinsertf128	$1, %xmm2, %ymm3, %ymm2
	vaddps	%ymm2, %ymm1, %ymm2
	vmovups	-864(%rax), %ymm6
	vmulps	.LC32(%rip), %ymm2, %ymm2
	vmovaps	%ymm2, -4194352(%rbp)
	vcvtps2pd	%xmm2, %ymm10
	vshufps	$136, %ymm5, %ymm0, %ymm4
	vshufps	$221, %ymm5, %ymm0, %ymm0
	vperm2f128	$3, %ymm4, %ymm4, %ymm3
	vshufps	$68, %ymm3, %ymm4, %ymm1
	vshufps	$238, %ymm3, %ymm4, %ymm3
	vinsertf128	$1, %xmm3, %ymm1, %ymm1
	vperm2f128	$3, %ymm0, %ymm0, %ymm3
	vshufps	$68, %ymm3, %ymm0, %ymm4
	vshufps	$238, %ymm3, %ymm0, %ymm3
	vmovups	-896(%rax), %ymm0
	vinsertf128	$1, %xmm3, %ymm4, %ymm3
	vaddps	%ymm3, %ymm1, %ymm1
	vmovups	-800(%rax), %ymm7
	vextractf128	$0x1, %ymm2, %xmm2
	vcvtps2pd	%xmm2, %ymm2
	vmulps	.LC32(%rip), %ymm1, %ymm1
	vshufps	$136, %ymm6, %ymm0, %ymm5
	vshufps	$221, %ymm6, %ymm0, %ymm0
	vperm2f128	$3, %ymm5, %ymm5, %ymm4
	vshufps	$68, %ymm4, %ymm5, %ymm3
	vshufps	$238, %ymm4, %ymm5, %ymm4
	vinsertf128	$1, %xmm4, %ymm3, %ymm3
	vperm2f128	$3, %ymm0, %ymm0, %ymm4
	vshufps	$68, %ymm4, %ymm0, %ymm5
	vshufps	$238, %ymm4, %ymm0, %ymm4
	vinsertf128	$1, %xmm4, %ymm5, %ymm0
	vmovups	-832(%rax), %ymm4
	vaddps	%ymm0, %ymm3, %ymm0
	vmovaps	%ymm1, -4194320(%rbp)
	vmovups	-984(%rax), %ymm13
	vmulps	.LC32(%rip), %ymm0, %ymm0
	vshufps	$136, %ymm7, %ymm4, %ymm6
	vshufps	$221, %ymm7, %ymm4, %ymm4
	vperm2f128	$3, %ymm6, %ymm6, %ymm5
	vxorpd	%xmm7, %xmm7, %xmm7
	vshufps	$68, %ymm5, %ymm6, %ymm3
	vcvtss2sd	-4194352(%rbp), %xmm7, %xmm7
	vshufps	$238, %ymm5, %ymm6, %ymm5
	vinsertf128	$1, %xmm5, %ymm3, %ymm3
	vperm2f128	$3, %ymm4, %ymm4, %ymm5
	vshufps	$68, %ymm5, %ymm4, %ymm6
	vshufps	$238, %ymm5, %ymm4, %ymm5
	vmulsd	.LC35(%rip), %xmm7, %xmm4
	vinsertf128	$1, %xmm5, %ymm6, %ymm5
	vaddps	%ymm5, %ymm3, %ymm3
	vmulps	.LC32(%rip), %ymm3, %ymm3
	vmovaps	%ymm3, -4194256(%rbp)
	vxorpd	%xmm3, %xmm3, %xmm3
	vcvtss2sd	-4194348(%rbp), %xmm3, %xmm3
	vxorpd	%xmm5, %xmm5, %xmm5
	vmulsd	.LC33(%rip), %xmm3, %xmm8
	vmovss	-1020(%rax), %xmm3
	vcvtss2sd	-4194344(%rbp), %xmm5, %xmm5
	vmovaps	%ymm0, -4194288(%rbp)
	vsubss	-1024(%rax), %xmm3, %xmm6
	vmulsd	.LC36(%rip), %xmm7, %xmm3
	vmulsd	.LC34(%rip), %xmm5, %xmm5
	vmovss	.LC37(%rip), %xmm7
	vaddsd	%xmm8, %xmm4, %xmm4
	vsubsd	%xmm8, %xmm3, %xmm3
	vmovups	-1016(%rax), %ymm8
	vsubsd	%xmm5, %xmm4, %xmm4
	vshufps	$221, %ymm13, %ymm8, %ymm12
	vshufps	$136, %ymm13, %ymm8, %ymm13
	vperm2f128	$3, %ymm13, %ymm13, %ymm8
	vaddsd	%xmm3, %xmm5, %xmm3
	vcvtsd2ss	%xmm4, %xmm4, %xmm4
	vcvtsd2ss	%xmm3, %xmm3, %xmm3
	vsubss	%xmm3, %xmm4, %xmm3
	vperm2f128	$3, %ymm12, %ymm12, %ymm4
	vshufps	$68, %ymm4, %ymm12, %ymm14
	vshufps	$238, %ymm4, %ymm12, %ymm4
	vshufps	$68, %ymm8, %ymm13, %ymm12
	vinsertf128	$1, %xmm4, %ymm14, %ymm4
	vshufps	$238, %ymm8, %ymm13, %ymm8
	vinsertf128	$1, %xmm8, %ymm12, %ymm8
	vsubps	%ymm8, %ymm4, %ymm8
	vmulpd	.LC39(%rip), %ymm10, %ymm12
	vmulpd	%ymm15, %ymm10, %ymm10
	vmulpd	.LC39(%rip), %ymm2, %ymm4
	vsubss	%xmm3, %xmm6, %xmm3
	vmulpd	%ymm15, %ymm2, %ymm2
	vmovups	-4194344(%rbp), %ymm6
	vcvtps2pd	%xmm6, %ymm9
	vextractf128	$0x1, %ymm6, %xmm6
	vmulpd	%ymm15, %ymm9, %ymm9
	vcvtps2pd	%xmm6, %ymm6
	vmulss	%xmm7, %xmm3, %xmm3
	vmulpd	%ymm15, %ymm6, %ymm6
	vmovss	%xmm3, -2097200(%rbp)
	vmovups	-4194348(%rbp), %ymm3
	vcvtps2pd	%xmm3, %ymm5
	vextractf128	$0x1, %ymm3, %xmm3
	vaddpd	%ymm5, %ymm12, %ymm12
	vcvtps2pd	%xmm3, %ymm3
	vaddpd	%ymm10, %ymm5, %ymm5
	vaddpd	%ymm3, %ymm4, %ymm4
	vaddpd	%ymm2, %ymm3, %ymm3
	vaddpd	%ymm9, %ymm12, %ymm12
	vaddpd	%ymm6, %ymm4, %ymm4
	vsubpd	%ymm9, %ymm5, %ymm9
	vsubpd	%ymm6, %ymm3, %ymm3
	vcvtpd2psy	%ymm12, %xmm12
	vcvtpd2psy	%ymm4, %xmm4
	vinsertf128	$0x1, %xmm4, %ymm12, %ymm4
	vcvtpd2psy	%ymm9, %xmm2
	vcvtps2pd	%xmm1, %ymm9
	vextractf128	$0x1, %ymm1, %xmm1
	vcvtps2pd	%xmm1, %ymm6
	vcvtpd2psy	%ymm3, %xmm3
	vinsertf128	$0x1, %xmm3, %ymm2, %ymm2
	vsubps	%ymm2, %ymm4, %ymm2
	vsubps	%ymm2, %ymm8, %ymm2
	vmulps	.LC32(%rip), %ymm2, %ymm2
	vmovups	-920(%rax), %ymm10
	vmovups	%ymm2, -2097196(%rbp)
	vmovups	-952(%rax), %ymm4
	vmovups	-4194316(%rbp), %ymm5
	vshufps	$221, %ymm10, %ymm4, %ymm12
	vshufps	$136, %ymm10, %ymm4, %ymm4
	vperm2f128	$3, %ymm4, %ymm4, %ymm10
	vmovups	-4194312(%rbp), %ymm3
	vcvtps2pd	%xmm5, %ymm2
	vextractf128	$0x1, %ymm5, %xmm1
	vperm2f128	$3, %ymm12, %ymm12, %ymm5
	vcvtps2pd	%xmm1, %ymm1
	vshufps	$68, %ymm5, %ymm12, %ymm13
	vshufps	$238, %ymm5, %ymm12, %ymm5
	vshufps	$68, %ymm10, %ymm4, %ymm12
	vinsertf128	$1, %xmm5, %ymm13, %ymm5
	vshufps	$238, %ymm10, %ymm4, %ymm10
	vinsertf128	$1, %xmm10, %ymm12, %ymm10
	vsubps	%ymm10, %ymm5, %ymm5
	vmulpd	.LC39(%rip), %ymm6, %ymm4
	vmulpd	%ymm15, %ymm6, %ymm6
	vaddpd	%ymm1, %ymm4, %ymm4
	vcvtps2pd	%xmm3, %ymm8
	vmulpd	%ymm15, %ymm8, %ymm8
	vmulpd	.LC39(%rip), %ymm9, %ymm10
	vaddpd	%ymm6, %ymm1, %ymm1
	vmulpd	%ymm15, %ymm9, %ymm9
	vextractf128	$0x1, %ymm3, %xmm3
	vaddpd	%ymm2, %ymm10, %ymm10
	vcvtps2pd	%xmm3, %ymm3
	vmulpd	%ymm15, %ymm3, %ymm3
	vmovups	-4194284(%rbp), %ymm6
	vaddpd	%ymm9, %ymm2, %ymm2
	vcvtps2pd	%xmm0, %ymm9
	vextractf128	$0x1, %ymm0, %xmm0
	vaddpd	%ymm3, %ymm4, %ymm4
	vaddpd	%ymm8, %ymm10, %ymm10
	vsubpd	%ymm8, %ymm2, %ymm2
	vsubpd	%ymm3, %ymm1, %ymm3
	vcvtpd2psy	%ymm4, %xmm4
	vcvtpd2psy	%ymm10, %xmm10
	vinsertf128	$0x1, %xmm4, %ymm10, %ymm4
	vcvtpd2psy	%ymm2, %xmm1
	vcvtpd2psy	%ymm3, %xmm2
	vinsertf128	$0x1, %xmm2, %ymm1, %ymm1
	vsubps	%ymm1, %ymm4, %ymm1
	vmovups	-888(%rax), %ymm3
	vcvtps2pd	%xmm6, %ymm4
	vmovups	-4194280(%rbp), %ymm2
	vsubps	%ymm1, %ymm5, %ymm1
	vcvtps2pd	%xmm0, %ymm5
	vextractf128	$0x1, %ymm6, %xmm0
	vcvtps2pd	%xmm0, %ymm0
	vmulps	.LC32(%rip), %ymm1, %ymm1
	vcvtps2pd	%xmm2, %ymm8
	vmovups	%ymm1, -2097164(%rbp)
	vmovups	-856(%rax), %ymm1
	vmulpd	%ymm15, %ymm8, %ymm8
	vextractf128	$0x1, %ymm2, %xmm2
	vcvtps2pd	%xmm2, %ymm2
	vmulpd	%ymm15, %ymm2, %ymm2
	vshufps	$221, %ymm1, %ymm3, %ymm10
	vshufps	$136, %ymm1, %ymm3, %ymm1
	vperm2f128	$3, %ymm10, %ymm10, %ymm6
	vperm2f128	$3, %ymm1, %ymm1, %ymm3
	vshufps	$68, %ymm6, %ymm10, %ymm12
	vshufps	$238, %ymm6, %ymm10, %ymm6
	vshufps	$68, %ymm3, %ymm1, %ymm10
	vinsertf128	$1, %xmm6, %ymm12, %ymm6
	vshufps	$238, %ymm3, %ymm1, %ymm3
	vinsertf128	$1, %xmm3, %ymm10, %ymm3
	vsubps	%ymm3, %ymm6, %ymm6
	vmulpd	.LC39(%rip), %ymm9, %ymm1
	vmulpd	.LC39(%rip), %ymm5, %ymm3
	vaddpd	%ymm4, %ymm1, %ymm1
	vmulpd	%ymm15, %ymm5, %ymm5
	vaddpd	%ymm0, %ymm3, %ymm3
	vaddpd	%ymm5, %ymm0, %ymm0
	vmovsd	.LC40(%rip), %xmm5
	vaddpd	%ymm8, %ymm1, %ymm1
	vaddpd	%ymm2, %ymm3, %ymm3
	vsubpd	%ymm2, %ymm0, %ymm2
	vcvtpd2psy	%ymm1, %xmm1
	vcvtpd2psy	%ymm3, %xmm3
	vinsertf128	$0x1, %xmm3, %ymm1, %ymm3
	vmulpd	%ymm15, %ymm9, %ymm1
	vaddpd	%ymm1, %ymm4, %ymm1
	vsubpd	%ymm8, %ymm1, %ymm1
	vcvtpd2psy	%ymm1, %xmm0
	vcvtpd2psy	%ymm2, %xmm1
	vinsertf128	$0x1, %xmm1, %ymm0, %ymm0
	vxorpd	%xmm1, %xmm1, %xmm1
	vsubps	%ymm0, %ymm3, %ymm0
	vcvtss2sd	-4194256(%rbp), %xmm1, %xmm1
	vmovss	-820(%rax), %xmm3
	vxorpd	%xmm2, %xmm2, %xmm2
	vsubss	-824(%rax), %xmm3, %xmm8
	vmulsd	%xmm5, %xmm1, %xmm3
	vcvtss2sd	-4194248(%rbp), %xmm2, %xmm2
	vmulsd	.LC34(%rip), %xmm2, %xmm4
	vsubps	%ymm0, %ymm6, %ymm0
	vxorps	%xmm6, %xmm6, %xmm6
	vmulps	.LC32(%rip), %ymm0, %ymm0
	vmovups	%ymm0, -2097132(%rbp)
	vxorpd	%xmm0, %xmm0, %xmm0
	vcvtss2sd	-4194252(%rbp), %xmm0, %xmm0
	vaddsd	%xmm0, %xmm3, %xmm3
	vaddsd	%xmm4, %xmm3, %xmm3
	vcvtsd2ss	%xmm3, %xmm6, %xmm6
	vmulsd	.LC34(%rip), %xmm1, %xmm3
	vaddsd	%xmm3, %xmm0, %xmm1
	vsubsd	%xmm4, %xmm1, %xmm3
	vxorps	%xmm1, %xmm1, %xmm1
	vcvtsd2ss	%xmm3, %xmm1, %xmm1
	vsubss	%xmm1, %xmm6, %xmm1
	vmovss	-812(%rax), %xmm3
	vxorps	%xmm6, %xmm6, %xmm6
	vsubss	-816(%rax), %xmm3, %xmm9
	vmulsd	%xmm5, %xmm0, %xmm3
	vsubss	%xmm1, %xmm8, %xmm1
	vmulss	%xmm7, %xmm1, %xmm1
	vaddsd	%xmm2, %xmm3, %xmm3
	vmovss	%xmm1, -2097100(%rbp)
	vxorpd	%xmm1, %xmm1, %xmm1
	vcvtss2sd	-4194244(%rbp), %xmm1, %xmm1
	vmulsd	.LC34(%rip), %xmm1, %xmm8
	vaddsd	%xmm4, %xmm1, %xmm4
	vaddsd	%xmm8, %xmm3, %xmm3
	vcvtsd2ss	%xmm3, %xmm6, %xmm6
	vmulsd	.LC34(%rip), %xmm0, %xmm3
	vaddsd	%xmm2, %xmm3, %xmm0
	vsubsd	%xmm8, %xmm0, %xmm3
	vxorps	%xmm0, %xmm0, %xmm0
	vcvtsd2ss	%xmm3, %xmm0, %xmm0
	vsubss	%xmm0, %xmm6, %xmm0
	vsubss	%xmm0, %xmm9, %xmm0
	vmulss	%xmm7, %xmm0, %xmm0
	vmovss	%xmm0, -2097096(%rbp)
	vxorpd	%xmm0, %xmm0, %xmm0
	vcvtss2sd	-4194240(%rbp), %xmm0, %xmm0
	vmovss	-804(%rax), %xmm3
	vmulsd	.LC34(%rip), %xmm0, %xmm6
	vaddsd	%xmm8, %xmm0, %xmm8
	vsubss	-808(%rax), %xmm3, %xmm9
	vmulsd	%xmm5, %xmm2, %xmm3
	movq	-4194352(%rbp), %rcx
	vsubsd	%xmm6, %xmm4, %xmm4
	vaddsd	%xmm1, %xmm3, %xmm3
	movq	%rcx, -1024(%rax)
	movq	-4194344(%rbp), %rcx
	vcvtsd2ss	%xmm4, %xmm4, %xmm4
	vaddsd	%xmm6, %xmm3, %xmm3
	movq	%rcx, -1016(%rax)
	movq	-4194336(%rbp), %rcx
	vcvtsd2ss	%xmm3, %xmm3, %xmm3
	vsubss	%xmm4, %xmm3, %xmm2
	vxorpd	%xmm4, %xmm4, %xmm4
	vcvtss2sd	-4194236(%rbp), %xmm4, %xmm4
	vmulsd	.LC34(%rip), %xmm4, %xmm3
	vaddsd	%xmm6, %xmm4, %xmm6
	movq	%rcx, -1008(%rax)
	movq	-4194328(%rbp), %rcx
	vsubss	%xmm2, %xmm9, %xmm2
	vmulss	%xmm7, %xmm2, %xmm2
	vsubsd	%xmm3, %xmm8, %xmm8
	vcvtsd2ss	%xmm8, %xmm8, %xmm8
	vmovss	%xmm2, -2097092(%rbp)
	vmovss	-796(%rax), %xmm2
	vsubss	-800(%rax), %xmm2, %xmm9
	vmulsd	%xmm5, %xmm1, %xmm2
	vaddsd	%xmm0, %xmm2, %xmm2
	vaddsd	%xmm3, %xmm2, %xmm2
	vcvtsd2ss	%xmm2, %xmm2, %xmm2
	vsubss	%xmm8, %xmm2, %xmm1
	vxorpd	%xmm2, %xmm2, %xmm2
	vcvtss2sd	-4194232(%rbp), %xmm2, %xmm2
	vmulsd	.LC34(%rip), %xmm2, %xmm8
	vsubss	%xmm1, %xmm9, %xmm1
	vmulss	%xmm7, %xmm1, %xmm1
	vsubsd	%xmm8, %xmm6, %xmm6
	vcvtsd2ss	%xmm6, %xmm6, %xmm6
	vmovss	%xmm1, -2097088(%rbp)
	vmovss	-788(%rax), %xmm1
	vsubss	-792(%rax), %xmm1, %xmm9
	vmulsd	%xmm5, %xmm0, %xmm1
	vaddsd	%xmm4, %xmm1, %xmm1
	vaddsd	%xmm8, %xmm1, %xmm1
	vxorpd	%xmm8, %xmm8, %xmm8
	vcvtss2sd	-4194228(%rbp), %xmm8, %xmm8
	vcvtsd2ss	%xmm1, %xmm1, %xmm1
	vsubss	%xmm6, %xmm1, %xmm0
	vmulsd	%xmm5, %xmm4, %xmm1
	vmulsd	.LC34(%rip), %xmm8, %xmm6
	vaddsd	%xmm3, %xmm2, %xmm5
	vsubss	%xmm0, %xmm9, %xmm0
	vaddsd	%xmm2, %xmm1, %xmm4
	vmulsd	.LC33(%rip), %xmm2, %xmm2
	vmulss	%xmm7, %xmm0, %xmm0
	vsubsd	%xmm6, %xmm5, %xmm5
	vaddsd	%xmm6, %xmm4, %xmm4
	vcvtsd2ss	%xmm5, %xmm5, %xmm5
	vmovss	%xmm0, -2097084(%rbp)
	vmovss	-780(%rax), %xmm0
	vsubsd	%xmm2, %xmm3, %xmm3
	vsubss	-784(%rax), %xmm0, %xmm0
	vcvtsd2ss	%xmm4, %xmm4, %xmm4
	vsubss	%xmm5, %xmm4, %xmm4
	vaddsd	%xmm1, %xmm2, %xmm2
	vsubss	%xmm4, %xmm0, %xmm0
	vmulss	%xmm7, %xmm0, %xmm0
	vmovss	%xmm0, -2097080(%rbp)
	vmovss	-772(%rax), %xmm0
	vsubss	-776(%rax), %xmm0, %xmm6
	vmulsd	.LC36(%rip), %xmm8, %xmm0
	vaddsd	%xmm0, %xmm3, %xmm3
	vmulsd	.LC35(%rip), %xmm8, %xmm0
	vcvtsd2ss	%xmm3, %xmm3, %xmm3
	vaddsd	%xmm0, %xmm2, %xmm1
	vxorps	%xmm0, %xmm0, %xmm0
	vcvtsd2ss	%xmm1, %xmm0, %xmm0
	vsubss	%xmm0, %xmm3, %xmm0
	vsubss	%xmm0, %xmm6, %xmm0
	vmulss	%xmm7, %xmm0, %xmm0
	vmovss	%xmm0, -2097076(%rbp)
	movq	%rcx, -1000(%rax)
	movq	-4194320(%rbp), %rcx
	movq	-2097200(%rbp), %rsi
	movq	%rcx, -992(%rax)
	movq	-4194312(%rbp), %rcx
	movq	%rsi, -896(%rax)
	movq	-2097192(%rbp), %rsi
	movq	%rcx, -984(%rax)
	movq	-4194304(%rbp), %rcx
	movq	%rsi, -888(%rax)
	movq	-2097184(%rbp), %rsi
	movq	%rcx, -976(%rax)
	movq	-4194296(%rbp), %rcx
	movq	%rsi, -880(%rax)
	movq	-2097176(%rbp), %rsi
	movq	%rcx, -968(%rax)
	movq	-4194288(%rbp), %rcx
	movq	%rsi, -872(%rax)
	movq	-2097168(%rbp), %rsi
	movq	%rcx, -960(%rax)
	movq	-4194280(%rbp), %rcx
	movq	%rcx, -952(%rax)
	movq	-4194272(%rbp), %rcx
	movq	%rcx, -944(%rax)
	movq	-4194264(%rbp), %rcx
	movq	%rcx, -936(%rax)
	movq	-4194256(%rbp), %rcx
	movq	%rcx, -928(%rax)
	movq	-4194248(%rbp), %rcx
	movq	%rcx, -920(%rax)
	movq	-4194240(%rbp), %rcx
	movq	%rcx, -912(%rax)
	movq	-4194232(%rbp), %rcx
	movq	%rcx, -904(%rax)
	movq	%rsi, -864(%rax)
	movq	-2097160(%rbp), %rsi
	movq	%rsi, -856(%rax)
	movq	-2097152(%rbp), %rsi
	movq	%rsi, -848(%rax)
	movq	-2097144(%rbp), %rsi
	movq	%rsi, -840(%rax)
	movq	-2097136(%rbp), %rsi
	movq	%rsi, -832(%rax)
	movq	-2097128(%rbp), %rsi
	movq	%rsi, -824(%rax)
	movq	-2097120(%rbp), %rsi
	movq	%rsi, -816(%rax)
	movq	-2097112(%rbp), %rsi
	movq	%rsi, -808(%rax)
	movq	-2097104(%rbp), %rsi
	movq	%rsi, -800(%rax)
	movq	-2097096(%rbp), %rsi
	movq	%rsi, -792(%rax)
	movq	-2097088(%rbp), %rsi
	movq	%rsi, -784(%rax)
	movq	-2097080(%rbp), %rsi
	movq	%rsi, -776(%rax)
	subl	$1, %edx
	je	.L827
.L668:
	cmpl	$1, %ebx
	ja	.L664
	vxorpd	%xmm0, %xmm0, %xmm0
	vxorpd	%xmm1, %xmm1, %xmm1
	vcvtss2sd	(%rax), %xmm0, %xmm0
	vcvtss2sd	8(%rax), %xmm1, %xmm1
	vmulsd	.LC20(%rip), %xmm0, %xmm0
	vmulsd	.LC21(%rip), %xmm1, %xmm1
	vmovups	40(%rax), %ymm5
	vaddsd	%xmm1, %xmm0, %xmm0
	vxorpd	%xmm1, %xmm1, %xmm1
	vcvtss2sd	16(%rax), %xmm1, %xmm1
	vmulsd	.LC20(%rip), %xmm1, %xmm1
	vsubsd	%xmm1, %xmm0, %xmm0
	vxorpd	%xmm1, %xmm1, %xmm1
	vcvtss2sd	24(%rax), %xmm1, %xmm1
	vmulsd	.LC22(%rip), %xmm1, %xmm1
	vaddsd	%xmm1, %xmm0, %xmm0
	vmovss	4(%rax), %xmm1
	vcvtsd2ss	%xmm0, %xmm0, %xmm0
	vsubss	%xmm0, %xmm1, %xmm0
	vmovss	%xmm0, -4194352(%rbp)
	vmovups	8(%rax), %ymm0
	vshufps	$136, %ymm5, %ymm0, %ymm2
	vshufps	$221, %ymm5, %ymm0, %ymm0
	vperm2f128	$3, %ymm2, %ymm2, %ymm1
	vshufps	$68, %ymm1, %ymm2, %ymm3
	vshufps	$238, %ymm1, %ymm2, %ymm1
	vmovups	24(%rax), %ymm2
	vinsertf128	$1, %xmm1, %ymm3, %ymm3
	vshufps	$136, 56(%rax), %ymm2, %ymm2
	vperm2f128	$3, %ymm2, %ymm2, %ymm1
	vshufps	$68, %ymm1, %ymm2, %ymm4
	vshufps	$238, %ymm1, %ymm2, %ymm1
	vinsertf128	$1, %xmm1, %ymm4, %ymm1
	vmovups	16(%rax), %ymm4
	vshufps	$136, 48(%rax), %ymm4, %ymm4
	vperm2f128	$3, %ymm4, %ymm4, %ymm2
	vshufps	$68, %ymm2, %ymm4, %ymm6
	vshufps	$238, %ymm2, %ymm4, %ymm2
	vmovups	(%rax), %ymm4
	vinsertf128	$1, %xmm2, %ymm6, %ymm2
	vshufps	$136, 32(%rax), %ymm4, %ymm4
	vperm2f128	$3, %ymm4, %ymm4, %ymm6
	vshufps	$68, %ymm6, %ymm4, %ymm12
	vshufps	$238, %ymm6, %ymm4, %ymm6
	vperm2f128	$3, %ymm0, %ymm0, %ymm4
	vinsertf128	$1, %xmm6, %ymm12, %ymm12
	vshufps	$68, %ymm4, %ymm0, %ymm5
	vcvtps2pd	%xmm12, %ymm7
	vshufps	$238, %ymm4, %ymm0, %ymm4
	vmulpd	.LC23(%rip), %ymm7, %ymm0
	vinsertf128	$1, %xmm4, %ymm5, %ymm4
	vcvtps2pd	%xmm3, %ymm5
	vmulpd	.LC24(%rip), %ymm5, %ymm5
	vaddpd	%ymm5, %ymm0, %ymm0
	vcvtps2pd	%xmm2, %ymm5
	vextractf128	$0x1, %ymm12, %xmm8
	vmulpd	.LC24(%rip), %ymm5, %ymm5
	vcvtps2pd	%xmm8, %ymm8
	vextractf128	$0x1, %ymm3, %xmm3
	vcvtps2pd	%xmm3, %ymm3
	vmulpd	.LC24(%rip), %ymm3, %ymm3
	vextractf128	$0x1, %ymm2, %xmm2
	vcvtps2pd	%xmm2, %ymm2
	vmulpd	.LC24(%rip), %ymm2, %ymm2
	vaddpd	%ymm5, %ymm0, %ymm0
	vcvtps2pd	%xmm1, %ymm5
	vextractf128	$0x1, %ymm1, %xmm1
	vmulpd	.LC25(%rip), %ymm5, %ymm5
	vcvtps2pd	%xmm1, %ymm1
	vmulpd	.LC25(%rip), %ymm1, %ymm1
	vsubpd	%ymm5, %ymm0, %ymm0
	vmulpd	.LC23(%rip), %ymm8, %ymm5
	vaddpd	%ymm3, %ymm5, %ymm3
	vmovups	104(%rax), %ymm5
	vcvtpd2psy	%ymm0, %xmm0
	vaddpd	%ymm2, %ymm3, %ymm2
	vsubpd	%ymm1, %ymm2, %ymm1
	vcvtpd2psy	%ymm1, %xmm1
	vinsertf128	$0x1, %xmm1, %ymm0, %ymm1
	vsubps	%ymm1, %ymm4, %ymm1
	vmovups	%ymm1, -4194348(%rbp)
	vmovups	72(%rax), %ymm1
	vshufps	$136, %ymm5, %ymm1, %ymm2
	vshufps	$221, %ymm5, %ymm1, %ymm1
	vperm2f128	$3, %ymm2, %ymm2, %ymm0
	vshufps	$68, %ymm0, %ymm2, %ymm3
	vshufps	$238, %ymm0, %ymm2, %ymm0
	vinsertf128	$1, %xmm0, %ymm3, %ymm0
	vmovups	88(%rax), %ymm3
	vshufps	$136, 120(%rax), %ymm3, %ymm3
	vperm2f128	$3, %ymm3, %ymm3, %ymm2
	vshufps	$68, %ymm2, %ymm3, %ymm4
	vshufps	$238, %ymm2, %ymm3, %ymm2
	vinsertf128	$1, %xmm2, %ymm4, %ymm2
	vmovups	80(%rax), %ymm4
	vshufps	$136, 112(%rax), %ymm4, %ymm4
	vperm2f128	$3, %ymm4, %ymm4, %ymm3
	vshufps	$68, %ymm3, %ymm4, %ymm6
	vshufps	$238, %ymm3, %ymm4, %ymm3
	vmovups	64(%rax), %ymm4
	vinsertf128	$1, %xmm3, %ymm6, %ymm3
	vshufps	$136, 96(%rax), %ymm4, %ymm4
	vperm2f128	$3, %ymm4, %ymm4, %ymm6
	vshufps	$68, %ymm6, %ymm4, %ymm10
	vshufps	$238, %ymm6, %ymm4, %ymm6
	vperm2f128	$3, %ymm1, %ymm1, %ymm4
	vinsertf128	$1, %xmm6, %ymm10, %ymm10
	vshufps	$68, %ymm4, %ymm1, %ymm5
	vcvtps2pd	%xmm10, %ymm6
	vshufps	$238, %ymm4, %ymm1, %ymm4
	vcvtps2pd	%xmm0, %ymm1
	vinsertf128	$1, %xmm4, %ymm5, %ymm4
	vmulpd	.LC24(%rip), %ymm1, %ymm1
	vmulpd	.LC23(%rip), %ymm6, %ymm5
	vaddpd	%ymm1, %ymm5, %ymm5
	vcvtps2pd	%xmm3, %ymm1
	vmulpd	.LC24(%rip), %ymm1, %ymm1
	vextractf128	$0x1, %ymm0, %xmm0
	vcvtps2pd	%xmm0, %ymm0
	vextractf128	$0x1, %ymm3, %xmm3
	vmulpd	.LC24(%rip), %ymm0, %ymm0
	vcvtps2pd	%xmm3, %ymm3
	vmulpd	.LC24(%rip), %ymm3, %ymm3
	vmovups	168(%rax), %ymm13
	vaddpd	%ymm1, %ymm5, %ymm1
	vcvtps2pd	%xmm2, %ymm5
	vmulpd	.LC25(%rip), %ymm5, %ymm5
	vsubpd	%ymm5, %ymm1, %ymm1
	vextractf128	$0x1, %ymm10, %xmm5
	vcvtps2pd	%xmm5, %ymm14
	vmulpd	.LC23(%rip), %ymm14, %ymm5
	vaddpd	%ymm0, %ymm5, %ymm0
	vcvtpd2psy	%ymm1, %xmm1
	vaddpd	%ymm3, %ymm0, %ymm3
	vextractf128	$0x1, %ymm2, %xmm0
	vcvtps2pd	%xmm0, %ymm0
	vmulpd	.LC25(%rip), %ymm0, %ymm0
	vsubpd	%ymm0, %ymm3, %ymm0
	vmovups	136(%rax), %ymm3
	vcvtpd2psy	%ymm0, %xmm0
	vinsertf128	$0x1, %xmm0, %ymm1, %ymm0
	vsubps	%ymm0, %ymm4, %ymm0
	vshufps	$136, %ymm13, %ymm3, %ymm1
	vshufps	$221, %ymm13, %ymm3, %ymm3
	vmovups	%ymm0, -4194316(%rbp)
	vperm2f128	$3, %ymm1, %ymm1, %ymm0
	vshufps	$68, %ymm0, %ymm1, %ymm2
	vshufps	$238, %ymm0, %ymm1, %ymm0
	vmovups	152(%rax), %ymm1
	vinsertf128	$1, %xmm0, %ymm2, %ymm2
	vshufps	$136, 184(%rax), %ymm1, %ymm1
	vperm2f128	$3, %ymm1, %ymm1, %ymm0
	vshufps	$68, %ymm0, %ymm1, %ymm4
	vshufps	$238, %ymm0, %ymm1, %ymm0
	vinsertf128	$1, %xmm0, %ymm4, %ymm0
	vmovups	144(%rax), %ymm4
	vshufps	$136, 176(%rax), %ymm4, %ymm4
	vperm2f128	$3, %ymm4, %ymm4, %ymm1
	vshufps	$68, %ymm1, %ymm4, %ymm5
	vshufps	$238, %ymm1, %ymm4, %ymm1
	vmovups	128(%rax), %ymm4
	vinsertf128	$1, %xmm1, %ymm5, %ymm1
	vshufps	$136, 160(%rax), %ymm4, %ymm4
	vperm2f128	$3, %ymm4, %ymm4, %ymm5
	vshufps	$68, %ymm5, %ymm4, %ymm9
	vshufps	$238, %ymm5, %ymm4, %ymm5
	vperm2f128	$3, %ymm3, %ymm3, %ymm4
	vinsertf128	$1, %xmm5, %ymm9, %ymm9
	vshufps	$68, %ymm4, %ymm3, %ymm13
	vcvtps2pd	%xmm9, %ymm5
	vshufps	$238, %ymm4, %ymm3, %ymm4
	vmovapd	%ymm5, -4194512(%rbp)
	vcvtps2pd	%xmm2, %ymm3
	vinsertf128	$1, %xmm4, %ymm13, %ymm13
	vmulpd	.LC24(%rip), %ymm3, %ymm3
	vmulpd	.LC23(%rip), %ymm5, %ymm5
	vaddpd	%ymm3, %ymm5, %ymm5
	vcvtps2pd	%xmm1, %ymm3
	vextractf128	$0x1, %ymm2, %xmm2
	vmulpd	.LC24(%rip), %ymm3, %ymm3
	vcvtps2pd	%xmm2, %ymm2
	vextractf128	$0x1, %ymm1, %xmm1
	vcvtps2pd	%xmm1, %ymm1
	vmulpd	.LC24(%rip), %ymm2, %ymm2
	vmulpd	.LC24(%rip), %ymm1, %ymm1
	vaddpd	%ymm3, %ymm5, %ymm3
	vcvtps2pd	%xmm0, %ymm5
	vextractf128	$0x1, %ymm0, %xmm0
	vmulpd	.LC25(%rip), %ymm5, %ymm5
	vcvtps2pd	%xmm0, %ymm0
	vmulpd	.LC25(%rip), %ymm0, %ymm0
	vsubpd	%ymm5, %ymm3, %ymm3
	vextractf128	$0x1, %ymm9, %xmm5
	vcvtps2pd	%xmm5, %ymm5
	vmulpd	.LC23(%rip), %ymm5, %ymm4
	vaddpd	%ymm4, %ymm2, %ymm2
	vcvtpd2psy	%ymm3, %xmm3
	vaddpd	%ymm1, %ymm2, %ymm2
	vmovsd	.LC26(%rip), %xmm1
	vsubpd	%ymm0, %ymm2, %ymm2
	vxorpd	%xmm0, %xmm0, %xmm0
	vcvtpd2psy	%ymm2, %xmm2
	vinsertf128	$0x1, %xmm2, %ymm3, %ymm2
	vsubps	%ymm2, %ymm13, %ymm13
	vxorpd	%xmm3, %xmm3, %xmm3
	vcvtss2sd	200(%rax), %xmm3, %xmm3
	vmovups	%ymm13, -4194284(%rbp)
	vmovapd	%xmm3, %xmm13
	vxorpd	%xmm3, %xmm3, %xmm3
	vcvtss2sd	208(%rax), %xmm3, %xmm3
	vmulsd	%xmm3, %xmm1, %xmm2
	vmovsd	%xmm3, -4194480(%rbp)
	vxorpd	%xmm3, %xmm3, %xmm3
	vcvtss2sd	216(%rax), %xmm3, %xmm3
	vmovsd	%xmm13, -4194416(%rbp)
	vcvtss2sd	192(%rax), %xmm0, %xmm0
	vmulsd	%xmm13, %xmm1, %xmm13
	vmovsd	.LC27(%rip), %xmm4
	vmulsd	.LC27(%rip), %xmm0, %xmm0
	vaddsd	%xmm13, %xmm0, %xmm0
	vmulsd	.LC22(%rip), %xmm3, %xmm13
	vaddsd	%xmm2, %xmm0, %xmm0
	vsubsd	%xmm13, %xmm0, %xmm0
	vmovss	204(%rax), %xmm13
	vcvtsd2ss	%xmm0, %xmm0, %xmm0
	vsubss	%xmm0, %xmm13, %xmm0
	vxorpd	%xmm13, %xmm13, %xmm13
	vcvtss2sd	224(%rax), %xmm13, %xmm13
	vmovss	%xmm0, -4194252(%rbp)
	vmulsd	%xmm1, %xmm3, %xmm0
	vmovsd	%xmm0, -4194448(%rbp)
	vmulsd	-4194416(%rbp), %xmm4, %xmm0
	vaddsd	%xmm2, %xmm0, %xmm0
	vmulsd	.LC22(%rip), %xmm13, %xmm2
	vaddsd	-4194448(%rbp), %xmm0, %xmm0
	vsubsd	%xmm2, %xmm0, %xmm0
	vmovsd	%xmm2, -4194544(%rbp)
	vmovss	212(%rax), %xmm2
	vcvtsd2ss	%xmm0, %xmm0, %xmm0
	vsubss	%xmm0, %xmm2, %xmm0
	vmulsd	%xmm1, %xmm13, %xmm2
	vmovss	%xmm0, -4194248(%rbp)
	vxorpd	%xmm0, %xmm0, %xmm0
	vcvtss2sd	232(%rax), %xmm0, %xmm0
	vmovsd	%xmm0, -4194416(%rbp)
	vmulsd	-4194480(%rbp), %xmm4, %xmm0
	vaddsd	-4194448(%rbp), %xmm0, %xmm0
	vmovsd	.LC22(%rip), %xmm4
	vmulsd	-4194416(%rbp), %xmm4, %xmm4
	vaddsd	%xmm2, %xmm0, %xmm0
	vsubsd	%xmm4, %xmm0, %xmm0
	vmovss	220(%rax), %xmm4
	vcvtsd2ss	%xmm0, %xmm0, %xmm0
	vsubss	%xmm0, %xmm4, %xmm0
	vmovss	%xmm0, -4194244(%rbp)
	vmulsd	.LC27(%rip), %xmm3, %xmm0
	vxorpd	%xmm3, %xmm3, %xmm3
	vcvtss2sd	240(%rax), %xmm3, %xmm3
	vmulsd	.LC22(%rip), %xmm3, %xmm4
	vaddsd	%xmm0, %xmm2, %xmm0
	vmulsd	-4194416(%rbp), %xmm1, %xmm2
	vmulsd	%xmm1, %xmm3, %xmm1
	vaddsd	%xmm2, %xmm0, %xmm0
	vsubsd	%xmm4, %xmm0, %xmm0
	vmovss	228(%rax), %xmm4
	vcvtsd2ss	%xmm0, %xmm0, %xmm0
	vsubss	%xmm0, %xmm4, %xmm0
	vmovss	%xmm0, -4194240(%rbp)
	vmulsd	.LC27(%rip), %xmm13, %xmm0
	vaddsd	%xmm2, %xmm0, %xmm0
	vxorpd	%xmm2, %xmm2, %xmm2
	vcvtss2sd	248(%rax), %xmm2, %xmm2
	vaddsd	%xmm1, %xmm0, %xmm0
	vmulsd	.LC22(%rip), %xmm2, %xmm1
	vsubsd	%xmm1, %xmm0, %xmm0
	vmovss	236(%rax), %xmm1
	vmovaps	%ymm12, -2097200(%rbp)
	vmovsd	.LC20(%rip), %xmm4
	vmovaps	%ymm10, -2097168(%rbp)
	vmulsd	.LC28(%rip), %xmm13, %xmm13
	vmovaps	%ymm9, -2097136(%rbp)
	vcvtsd2ss	%xmm0, %xmm0, %xmm0
	vsubss	%xmm0, %xmm1, %xmm0
	vmovsd	-4194544(%rbp), %xmm1
	vmovss	%xmm0, -4194236(%rbp)
	vmulsd	-4194416(%rbp), %xmm4, %xmm0
	vsubsd	%xmm0, %xmm1, %xmm1
	vmulsd	.LC21(%rip), %xmm3, %xmm0
	vaddsd	%xmm0, %xmm1, %xmm0
	vmulsd	%xmm4, %xmm2, %xmm1
	vaddsd	%xmm1, %xmm0, %xmm0
	vmovss	244(%rax), %xmm1
	vcvtsd2ss	%xmm0, %xmm0, %xmm0
	vsubss	%xmm0, %xmm1, %xmm0
	vmovsd	.LC30(%rip), %xmm1
	vmovss	%xmm0, -4194232(%rbp)
	vmovsd	-4194416(%rbp), %xmm0
	vmulsd	.LC29(%rip), %xmm0, %xmm0
	vaddsd	%xmm0, %xmm13, %xmm13
	vmulsd	%xmm1, %xmm3, %xmm0
	vmulsd	%xmm1, %xmm2, %xmm1
	vsubsd	%xmm0, %xmm13, %xmm0
	vaddsd	%xmm1, %xmm0, %xmm0
	vmovss	252(%rax), %xmm1
	vcvtsd2ss	%xmm0, %xmm0, %xmm0
	vsubss	%xmm0, %xmm1, %xmm0
	vmovss	%xmm0, -4194228(%rbp)
	vmovss	192(%rax), %xmm0
	vmovss	%xmm0, -2097104(%rbp)
	vmovss	200(%rax), %xmm0
	vmovss	%xmm0, -2097100(%rbp)
	vmovss	208(%rax), %xmm0
	vmovss	%xmm0, -2097096(%rbp)
	vmovss	216(%rax), %xmm0
	vmovss	%xmm0, -2097092(%rbp)
	vmovss	224(%rax), %xmm0
	vmovss	%xmm0, -2097088(%rbp)
	vmovss	232(%rax), %xmm0
	vmovss	%xmm0, -2097084(%rbp)
	vmovss	240(%rax), %xmm0
	vmovss	%xmm0, -2097080(%rbp)
	vmovss	248(%rax), %xmm0
	vmovss	%xmm0, -2097076(%rbp)
	testb	%r14b, %r14b
	je	.L667
	vmovaps	-4194352(%rbp), %ymm1
	vcvtps2pd	%xmm1, %ymm0
	vextractf128	$0x1, %ymm1, %xmm1
	vmulpd	%ymm11, %ymm0, %ymm0
	vcvtps2pd	%xmm1, %ymm1
	vaddpd	%ymm0, %ymm7, %ymm0
	vmulpd	%ymm11, %ymm1, %ymm1
	vaddpd	%ymm1, %ymm8, %ymm1
	vcvtpd2psy	%ymm0, %xmm0
	vcvtpd2psy	%ymm1, %xmm1
	vinsertf128	$0x1, %xmm1, %ymm0, %ymm0
	vmovaps	-4194320(%rbp), %ymm1
	vmovaps	%ymm0, -2097200(%rbp)
	vcvtps2pd	%xmm1, %ymm0
	vextractf128	$0x1, %ymm1, %xmm1
	vmulpd	%ymm11, %ymm0, %ymm0
	vcvtps2pd	%xmm1, %ymm1
	vaddpd	%ymm0, %ymm6, %ymm0
	vmulpd	%ymm11, %ymm1, %ymm1
	vaddpd	%ymm1, %ymm14, %ymm1
	vcvtpd2psy	%ymm0, %xmm0
	vcvtpd2psy	%ymm1, %xmm1
	vinsertf128	$0x1, %xmm1, %ymm0, %ymm0
	vmovaps	-4194288(%rbp), %ymm1
	vmovaps	%ymm0, -2097168(%rbp)
	vcvtps2pd	%xmm1, %ymm0
	vextractf128	$0x1, %ymm1, %xmm1
	vmulpd	%ymm11, %ymm0, %ymm0
	vcvtps2pd	%xmm1, %ymm1
	vaddpd	-4194512(%rbp), %ymm0, %ymm0
	vmulpd	%ymm11, %ymm1, %ymm1
	vaddpd	%ymm1, %ymm5, %ymm1
	vcvtpd2psy	%ymm0, %xmm0
	vcvtpd2psy	%ymm1, %xmm1
	vinsertf128	$0x1, %xmm1, %ymm0, %ymm0
	vmovaps	-4194256(%rbp), %ymm1
	vmovaps	%ymm0, -2097136(%rbp)
	vmovaps	-2097104(%rbp), %ymm0
	vcvtps2pd	%xmm1, %ymm3
	vextractf128	$0x1, %ymm1, %xmm1
	vmulpd	%ymm11, %ymm3, %ymm3
	vcvtps2pd	%xmm1, %ymm1
	vcvtps2pd	%xmm0, %ymm2
	vmulpd	%ymm11, %ymm1, %ymm1
	vaddpd	%ymm3, %ymm2, %ymm2
	vextractf128	$0x1, %ymm0, %xmm0
	vcvtps2pd	%xmm0, %ymm0
	vaddpd	%ymm1, %ymm0, %ymm0
	vcvtpd2psy	%ymm2, %xmm1
	vcvtpd2psy	%ymm0, %xmm0
	vinsertf128	$0x1, %xmm0, %ymm1, %ymm0
	vmovaps	%ymm0, -2097104(%rbp)
.L667:
	movq	-2097200(%rbp), %rcx
	addq	$1024, %rax
	movq	-4194352(%rbp), %rsi
	movq	%rcx, -1024(%rax)
	movq	-2097192(%rbp), %rcx
	movq	%rcx, -1016(%rax)
	movq	-2097184(%rbp), %rcx
	movq	%rcx, -1008(%rax)
	movq	-2097176(%rbp), %rcx
	movq	%rcx, -1000(%rax)
	movq	-2097168(%rbp), %rcx
	movq	%rcx, -992(%rax)
	movq	-2097160(%rbp), %rcx
	movq	%rcx, -984(%rax)
	movq	-2097152(%rbp), %rcx
	movq	%rcx, -976(%rax)
	movq	-2097144(%rbp), %rcx
	movq	%rcx, -968(%rax)
	movq	-2097136(%rbp), %rcx
	movq	%rcx, -960(%rax)
	movq	-2097128(%rbp), %rcx
	movq	%rcx, -952(%rax)
	movq	-2097120(%rbp), %rcx
	movq	%rcx, -944(%rax)
	movq	-2097112(%rbp), %rcx
	movq	%rcx, -936(%rax)
	movq	-2097104(%rbp), %rcx
	movq	%rcx, -928(%rax)
	movq	-2097096(%rbp), %rcx
	movq	%rcx, -920(%rax)
	movq	-2097088(%rbp), %rcx
	movq	%rcx, -912(%rax)
	movq	-2097080(%rbp), %rcx
	movq	%rcx, -904(%rax)
	movq	%rsi, -896(%rax)
	movq	-4194344(%rbp), %rsi
	movq	%rsi, -888(%rax)
	movq	-4194336(%rbp), %rsi
	movq	%rsi, -880(%rax)
	movq	-4194328(%rbp), %rsi
	movq	%rsi, -872(%rax)
	movq	-4194320(%rbp), %rsi
	movq	%rsi, -864(%rax)
	movq	-4194312(%rbp), %rsi
	movq	%rsi, -856(%rax)
	movq	-4194304(%rbp), %rsi
	movq	%rsi, -848(%rax)
	movq	-4194296(%rbp), %rsi
	movq	%rsi, -840(%rax)
	movq	-4194288(%rbp), %rsi
	movq	%rsi, -832(%rax)
	movq	-4194280(%rbp), %rsi
	movq	%rsi, -824(%rax)
	movq	-4194272(%rbp), %rsi
	movq	%rsi, -816(%rax)
	movq	-4194264(%rbp), %rsi
	movq	%rsi, -808(%rax)
	movq	-4194256(%rbp), %rsi
	movq	%rsi, -800(%rax)
	movq	-4194248(%rbp), %rsi
	movq	%rsi, -792(%rax)
	movq	-4194240(%rbp), %rsi
	movq	%rsi, -784(%rax)
	movq	-4194232(%rbp), %rsi
	movq	%rsi, -776(%rax)
	subl	$1, %edx
	jne	.L668
.L827:
	leaq	1024(%r9), %r8
	xorl	%edi, %edi
	movq	%r9, %rsi
	addl	$1, %edi
	cmpl	$64, %edi
	je	.L745
.L828:
	movq	%r8, %rdx
	movl	%edi, %eax
	.p2align 4,,10
	.p2align 3
.L670:
	movslq	%eax, %rcx
	vmovss	(%rdx), %xmm1
	addl	$1, %eax
	addq	$1024, %rdx
	leaq	(%rsi,%rcx,4), %rcx
	vmovss	(%rcx), %xmm0
	vmovss	%xmm1, (%rcx)
	vmovss	%xmm0, -1024(%rdx)
	cmpl	$64, %eax
	jne	.L670
	addl	$1, %edi
	addq	$1028, %r8
	addq	$1024, %rsi
	cmpl	$64, %edi
	jne	.L828
.L745:
	movq	%r9, %rax
	movl	$64, %ecx
	vmovaps	.LC32(%rip), %ymm11
	vmovapd	.LC38(%rip), %ymm10
	jmp	.L669
	.p2align 4,,10
	.p2align 3
.L672:
	vmovups	32(%rax), %ymm3
	addq	$1024, %rax
	vmovups	-1024(%rax), %ymm0
	vmovups	-928(%rax), %ymm5
	vshufps	$136, %ymm3, %ymm0, %ymm2
	vshufps	$221, %ymm3, %ymm0, %ymm0
	vperm2f128	$3, %ymm2, %ymm2, %ymm4
	vshufps	$68, %ymm4, %ymm2, %ymm1
	vshufps	$238, %ymm4, %ymm2, %ymm4
	vperm2f128	$3, %ymm0, %ymm0, %ymm2
	vinsertf128	$1, %xmm4, %ymm1, %ymm1
	vshufps	$68, %ymm2, %ymm0, %ymm4
	vshufps	$238, %ymm2, %ymm0, %ymm2
	vmovups	-960(%rax), %ymm0
	vinsertf128	$1, %xmm2, %ymm4, %ymm4
	vaddps	%ymm4, %ymm1, %ymm4
	vmovups	-864(%rax), %ymm6
	vshufps	$136, %ymm5, %ymm0, %ymm3
	vshufps	$221, %ymm5, %ymm0, %ymm0
	vperm2f128	$3, %ymm3, %ymm3, %ymm2
	vshufps	$68, %ymm2, %ymm3, %ymm1
	vshufps	$238, %ymm2, %ymm3, %ymm2
	vinsertf128	$1, %xmm2, %ymm1, %ymm1
	vperm2f128	$3, %ymm0, %ymm0, %ymm2
	vshufps	$68, %ymm2, %ymm0, %ymm3
	vshufps	$238, %ymm2, %ymm0, %ymm2
	vmovups	-896(%rax), %ymm0
	vmulps	%ymm11, %ymm4, %ymm4
	vinsertf128	$1, %xmm2, %ymm3, %ymm2
	vmovups	-800(%rax), %ymm7
	vaddps	%ymm2, %ymm1, %ymm1
	vcvtps2pd	%xmm4, %ymm9
	vmovaps	%ymm4, -4194352(%rbp)
	vshufps	$136, %ymm6, %ymm0, %ymm5
	vshufps	$221, %ymm6, %ymm0, %ymm0
	vperm2f128	$3, %ymm5, %ymm5, %ymm3
	vshufps	$68, %ymm3, %ymm5, %ymm2
	vshufps	$238, %ymm3, %ymm5, %ymm3
	vinsertf128	$1, %xmm3, %ymm2, %ymm2
	vperm2f128	$3, %ymm0, %ymm0, %ymm3
	vshufps	$68, %ymm3, %ymm0, %ymm5
	vshufps	$238, %ymm3, %ymm0, %ymm3
	vinsertf128	$1, %xmm3, %ymm5, %ymm0
	vaddps	%ymm0, %ymm2, %ymm0
	vmulps	%ymm11, %ymm1, %ymm1
	vmovups	-832(%rax), %ymm3
	vmovaps	%ymm1, -4194320(%rbp)
	vmovups	-984(%rax), %ymm13
	vshufps	$136, %ymm7, %ymm3, %ymm6
	vshufps	$221, %ymm7, %ymm3, %ymm3
	vperm2f128	$3, %ymm6, %ymm6, %ymm5
	vshufps	$68, %ymm5, %ymm6, %ymm2
	vshufps	$238, %ymm5, %ymm6, %ymm5
	vinsertf128	$1, %xmm5, %ymm2, %ymm2
	vperm2f128	$3, %ymm3, %ymm3, %ymm5
	vshufps	$68, %ymm5, %ymm3, %ymm6
	vshufps	$238, %ymm5, %ymm3, %ymm5
	vinsertf128	$1, %xmm5, %ymm6, %ymm5
	vaddps	%ymm5, %ymm2, %ymm2
	vxorpd	%xmm7, %xmm7, %xmm7
	vcvtss2sd	-4194352(%rbp), %xmm7, %xmm7
	vxorpd	%xmm5, %xmm5, %xmm5
	vcvtss2sd	-4194344(%rbp), %xmm5, %xmm5
	vmulps	%ymm11, %ymm0, %ymm0
	vmulsd	.LC35(%rip), %xmm7, %xmm3
	vmovaps	%ymm0, -4194288(%rbp)
	vmulsd	.LC34(%rip), %xmm5, %xmm5
	vmulps	%ymm11, %ymm2, %ymm2
	vmovaps	%ymm2, -4194256(%rbp)
	vxorpd	%xmm2, %xmm2, %xmm2
	vcvtss2sd	-4194348(%rbp), %xmm2, %xmm2
	vmulsd	.LC33(%rip), %xmm2, %xmm8
	vmovss	-1020(%rax), %xmm2
	vsubss	-1024(%rax), %xmm2, %xmm6
	vmulsd	.LC36(%rip), %xmm7, %xmm2
	vaddsd	%xmm8, %xmm3, %xmm3
	vsubsd	%xmm8, %xmm2, %xmm2
	vsubsd	%xmm5, %xmm3, %xmm3
	vaddsd	%xmm2, %xmm5, %xmm2
	vmovups	-4194344(%rbp), %ymm5
	vcvtsd2ss	%xmm3, %xmm3, %xmm3
	vcvtps2pd	%xmm5, %ymm8
	vextractf128	$0x1, %ymm5, %xmm5
	vmulpd	%ymm10, %ymm8, %ymm8
	vcvtps2pd	%xmm5, %ymm5
	vcvtsd2ss	%xmm2, %xmm2, %xmm2
	vsubss	%xmm2, %xmm3, %xmm2
	vmovups	-4194348(%rbp), %ymm3
	vmulpd	%ymm10, %ymm5, %ymm5
	vsubss	%xmm2, %xmm6, %xmm2
	vmovups	-1016(%rax), %ymm6
	vmulss	.LC37(%rip), %xmm2, %xmm2
	vshufps	$221, %ymm13, %ymm6, %ymm12
	vshufps	$136, %ymm13, %ymm6, %ymm6
	vperm2f128	$3, %ymm12, %ymm12, %ymm7
	vperm2f128	$3, %ymm6, %ymm6, %ymm13
	vshufps	$68, %ymm7, %ymm12, %ymm14
	vshufps	$238, %ymm7, %ymm12, %ymm7
	vshufps	$68, %ymm13, %ymm6, %ymm12
	vinsertf128	$1, %xmm7, %ymm14, %ymm7
	vshufps	$238, %ymm13, %ymm6, %ymm13
	vinsertf128	$1, %xmm13, %ymm12, %ymm12
	vsubps	%ymm12, %ymm7, %ymm7
	vmulpd	.LC39(%rip), %ymm9, %ymm6
	vmovss	%xmm2, -2097200(%rbp)
	vmulpd	%ymm10, %ymm9, %ymm9
	vextractf128	$0x1, %ymm4, %xmm2
	vcvtps2pd	%xmm3, %ymm4
	vcvtps2pd	%xmm2, %ymm2
	vaddpd	%ymm4, %ymm6, %ymm6
	vextractf128	$0x1, %ymm3, %xmm3
	vmulpd	.LC39(%rip), %ymm2, %ymm12
	vaddpd	%ymm9, %ymm4, %ymm4
	vcvtps2pd	%xmm3, %ymm3
	vmulpd	%ymm10, %ymm2, %ymm2
	vaddpd	%ymm3, %ymm12, %ymm12
	vaddpd	%ymm2, %ymm3, %ymm3
	vaddpd	%ymm8, %ymm6, %ymm6
	vaddpd	%ymm5, %ymm12, %ymm12
	vsubpd	%ymm8, %ymm4, %ymm8
	vsubpd	%ymm5, %ymm3, %ymm3
	vcvtpd2psy	%ymm6, %xmm6
	vmovups	-4194312(%rbp), %ymm5
	vcvtpd2psy	%ymm12, %xmm12
	vinsertf128	$0x1, %xmm12, %ymm6, %ymm6
	vmovups	-920(%rax), %ymm12
	vcvtpd2psy	%ymm8, %xmm2
	vcvtps2pd	%xmm1, %ymm8
	vextractf128	$0x1, %ymm1, %xmm1
	vcvtps2pd	%xmm1, %ymm4
	vcvtpd2psy	%ymm3, %xmm3
	vinsertf128	$0x1, %xmm3, %ymm2, %ymm2
	vsubps	%ymm2, %ymm6, %ymm2
	vmovups	-952(%rax), %ymm6
	vshufps	$221, %ymm12, %ymm6, %ymm9
	vshufps	$136, %ymm12, %ymm6, %ymm12
	vperm2f128	$3, %ymm12, %ymm12, %ymm6
	vsubps	%ymm2, %ymm7, %ymm7
	vmulps	%ymm11, %ymm7, %ymm2
	vmovups	%ymm2, -2097196(%rbp)
	vcvtps2pd	%xmm5, %ymm7
	vmovups	-4194316(%rbp), %ymm2
	vmulpd	%ymm10, %ymm7, %ymm7
	vextractf128	$0x1, %ymm5, %xmm5
	vcvtps2pd	%xmm5, %ymm5
	vmulpd	%ymm10, %ymm5, %ymm5
	vcvtps2pd	%xmm2, %ymm3
	vextractf128	$0x1, %ymm2, %xmm1
	vperm2f128	$3, %ymm9, %ymm9, %ymm2
	vshufps	$68, %ymm2, %ymm9, %ymm13
	vshufps	$238, %ymm2, %ymm9, %ymm2
	vshufps	$68, %ymm6, %ymm12, %ymm9
	vshufps	$238, %ymm6, %ymm12, %ymm6
	vinsertf128	$1, %xmm6, %ymm9, %ymm6
	vmulpd	.LC39(%rip), %ymm8, %ymm9
	vmulpd	%ymm10, %ymm8, %ymm8
	vaddpd	%ymm3, %ymm9, %ymm9
	vcvtps2pd	%xmm1, %ymm1
	vaddpd	%ymm8, %ymm3, %ymm3
	vinsertf128	$1, %xmm2, %ymm13, %ymm2
	vmovups	-856(%rax), %ymm8
	vsubps	%ymm6, %ymm2, %ymm6
	vmulpd	.LC39(%rip), %ymm4, %ymm2
	vaddpd	%ymm7, %ymm9, %ymm9
	vaddpd	%ymm1, %ymm2, %ymm2
	vsubpd	%ymm7, %ymm3, %ymm7
	vmulpd	%ymm10, %ymm4, %ymm3
	vmovups	-4194284(%rbp), %ymm4
	vaddpd	%ymm3, %ymm1, %ymm3
	vcvtpd2psy	%ymm9, %xmm9
	vaddpd	%ymm5, %ymm2, %ymm2
	vcvtpd2psy	%ymm7, %xmm1
	vcvtps2pd	%xmm0, %ymm7
	vextractf128	$0x1, %ymm0, %xmm0
	vsubpd	%ymm5, %ymm3, %ymm3
	vcvtps2pd	%xmm0, %ymm5
	vextractf128	$0x1, %ymm4, %xmm0
	vcvtps2pd	%xmm0, %ymm0
	vcvtpd2psy	%ymm2, %xmm2
	vinsertf128	$0x1, %xmm2, %ymm9, %ymm2
	vcvtpd2psy	%ymm3, %xmm3
	vinsertf128	$0x1, %xmm3, %ymm1, %ymm1
	vsubps	%ymm1, %ymm2, %ymm1
	vmovups	-888(%rax), %ymm3
	vmovups	-4194280(%rbp), %ymm2
	vshufps	$221, %ymm8, %ymm3, %ymm9
	vshufps	$136, %ymm8, %ymm3, %ymm3
	vperm2f128	$3, %ymm3, %ymm3, %ymm8
	vsubps	%ymm1, %ymm6, %ymm1
	vcvtps2pd	%xmm2, %ymm6
	vextractf128	$0x1, %ymm2, %xmm2
	vmulpd	%ymm10, %ymm6, %ymm6
	vcvtps2pd	%xmm2, %ymm2
	vmulpd	%ymm10, %ymm2, %ymm2
	vmulps	%ymm11, %ymm1, %ymm1
	vmovups	%ymm1, -2097164(%rbp)
	vcvtps2pd	%xmm4, %ymm1
	vperm2f128	$3, %ymm9, %ymm9, %ymm4
	vshufps	$68, %ymm4, %ymm9, %ymm12
	vshufps	$238, %ymm4, %ymm9, %ymm4
	vshufps	$68, %ymm8, %ymm3, %ymm9
	vinsertf128	$1, %xmm4, %ymm12, %ymm4
	vshufps	$238, %ymm8, %ymm3, %ymm8
	vinsertf128	$1, %xmm8, %ymm9, %ymm8
	vsubps	%ymm8, %ymm4, %ymm4
	vmulpd	.LC39(%rip), %ymm5, %ymm3
	vmulpd	.LC39(%rip), %ymm7, %ymm8
	vaddpd	%ymm0, %ymm3, %ymm3
	vmulpd	%ymm10, %ymm7, %ymm7
	vmulpd	%ymm10, %ymm5, %ymm5
	vaddpd	%ymm1, %ymm8, %ymm8
	vaddpd	%ymm5, %ymm0, %ymm0
	vxorps	%xmm5, %xmm5, %xmm5
	vaddpd	%ymm7, %ymm1, %ymm1
	vaddpd	%ymm6, %ymm8, %ymm8
	vaddpd	%ymm2, %ymm3, %ymm3
	vsubpd	%ymm6, %ymm1, %ymm1
	vsubpd	%ymm2, %ymm0, %ymm2
	vcvtpd2psy	%ymm8, %xmm8
	vcvtpd2psy	%ymm3, %xmm3
	vinsertf128	$0x1, %xmm3, %ymm8, %ymm3
	vcvtpd2psy	%ymm1, %xmm0
	vcvtpd2psy	%ymm2, %xmm1
	vinsertf128	$0x1, %xmm1, %ymm0, %ymm0
	vsubps	%ymm0, %ymm3, %ymm0
	vxorpd	%xmm1, %xmm1, %xmm1
	vmovss	-820(%rax), %xmm3
	vcvtss2sd	-4194256(%rbp), %xmm1, %xmm1
	vxorpd	%xmm2, %xmm2, %xmm2
	vcvtss2sd	-4194248(%rbp), %xmm2, %xmm2
	vsubss	-824(%rax), %xmm3, %xmm7
	vmulsd	.LC34(%rip), %xmm2, %xmm6
	vsubps	%ymm0, %ymm4, %ymm0
	vmovsd	.LC40(%rip), %xmm4
	vmulsd	%xmm4, %xmm1, %xmm3
	vmulps	%ymm11, %ymm0, %ymm0
	vmovups	%ymm0, -2097132(%rbp)
	vxorpd	%xmm0, %xmm0, %xmm0
	vcvtss2sd	-4194252(%rbp), %xmm0, %xmm0
	vaddsd	%xmm0, %xmm3, %xmm3
	vaddsd	%xmm6, %xmm3, %xmm3
	vcvtsd2ss	%xmm3, %xmm5, %xmm5
	vmulsd	.LC34(%rip), %xmm1, %xmm3
	vaddsd	%xmm3, %xmm0, %xmm1
	vsubsd	%xmm6, %xmm1, %xmm3
	vxorps	%xmm1, %xmm1, %xmm1
	vcvtsd2ss	%xmm3, %xmm1, %xmm1
	vsubss	%xmm1, %xmm5, %xmm1
	vmovss	-812(%rax), %xmm3
	vxorps	%xmm5, %xmm5, %xmm5
	vsubss	-816(%rax), %xmm3, %xmm8
	vmulsd	%xmm4, %xmm0, %xmm3
	vsubss	%xmm1, %xmm7, %xmm1
	vmulss	.LC37(%rip), %xmm1, %xmm1
	vaddsd	%xmm2, %xmm3, %xmm3
	vmovss	%xmm1, -2097100(%rbp)
	vxorpd	%xmm1, %xmm1, %xmm1
	vcvtss2sd	-4194244(%rbp), %xmm1, %xmm1
	vmulsd	.LC34(%rip), %xmm1, %xmm7
	vaddsd	%xmm6, %xmm1, %xmm6
	vaddsd	%xmm7, %xmm3, %xmm3
	vcvtsd2ss	%xmm3, %xmm5, %xmm5
	vmulsd	.LC34(%rip), %xmm0, %xmm3
	vaddsd	%xmm3, %xmm2, %xmm0
	vsubsd	%xmm7, %xmm0, %xmm3
	vxorps	%xmm0, %xmm0, %xmm0
	vcvtsd2ss	%xmm3, %xmm0, %xmm0
	vsubss	%xmm0, %xmm5, %xmm0
	vmovss	-804(%rax), %xmm3
	vsubss	%xmm0, %xmm8, %xmm0
	vmulss	.LC37(%rip), %xmm0, %xmm0
	vsubss	-808(%rax), %xmm3, %xmm8
	vmulsd	%xmm4, %xmm2, %xmm3
	vmovss	%xmm0, -2097096(%rbp)
	vxorpd	%xmm0, %xmm0, %xmm0
	vcvtss2sd	-4194240(%rbp), %xmm0, %xmm0
	vmulsd	.LC34(%rip), %xmm0, %xmm5
	vaddsd	%xmm7, %xmm0, %xmm7
	vaddsd	%xmm1, %xmm3, %xmm3
	vsubsd	%xmm5, %xmm6, %xmm6
	vaddsd	%xmm5, %xmm3, %xmm3
	vcvtsd2ss	%xmm6, %xmm6, %xmm6
	vcvtsd2ss	%xmm3, %xmm3, %xmm3
	vsubss	%xmm6, %xmm3, %xmm2
	vxorpd	%xmm3, %xmm3, %xmm3
	vsubss	%xmm2, %xmm8, %xmm2
	vmulss	.LC37(%rip), %xmm2, %xmm2
	vmovss	%xmm2, -2097092(%rbp)
	vmovss	-796(%rax), %xmm6
	vcvtss2sd	-4194236(%rbp), %xmm3, %xmm3
	vaddsd	%xmm5, %xmm3, %xmm5
	vsubss	-800(%rax), %xmm6, %xmm8
	vmulsd	%xmm4, %xmm1, %xmm6
	vmulsd	.LC34(%rip), %xmm3, %xmm2
	movq	-4194352(%rbp), %rdx
	vaddsd	%xmm0, %xmm6, %xmm6
	vsubsd	%xmm2, %xmm7, %xmm7
	movq	%rdx, -1024(%rax)
	movq	-4194344(%rbp), %rdx
	vaddsd	%xmm2, %xmm6, %xmm6
	vcvtsd2ss	%xmm7, %xmm7, %xmm7
	movq	%rdx, -1016(%rax)
	movq	-4194336(%rbp), %rdx
	vcvtsd2ss	%xmm6, %xmm6, %xmm6
	vsubss	%xmm7, %xmm6, %xmm1
	vxorpd	%xmm6, %xmm6, %xmm6
	vcvtss2sd	-4194232(%rbp), %xmm6, %xmm6
	vmulsd	.LC34(%rip), %xmm6, %xmm7
	vsubss	%xmm1, %xmm8, %xmm1
	movq	%rdx, -1008(%rax)
	vmulss	.LC37(%rip), %xmm1, %xmm1
	movq	-4194328(%rbp), %rdx
	vsubsd	%xmm7, %xmm5, %xmm5
	vmovss	%xmm1, -2097088(%rbp)
	vmovss	-788(%rax), %xmm1
	vsubss	-792(%rax), %xmm1, %xmm8
	vmulsd	%xmm4, %xmm0, %xmm1
	movq	%rdx, -1000(%rax)
	vcvtsd2ss	%xmm5, %xmm5, %xmm5
	vaddsd	%xmm3, %xmm1, %xmm1
	vaddsd	%xmm7, %xmm1, %xmm1
	vcvtsd2ss	%xmm1, %xmm1, %xmm1
	vsubss	%xmm5, %xmm1, %xmm0
	vmulsd	%xmm4, %xmm3, %xmm1
	vxorpd	%xmm5, %xmm5, %xmm5
	vcvtss2sd	-4194228(%rbp), %xmm5, %xmm5
	vaddsd	%xmm2, %xmm6, %xmm4
	vmulsd	.LC34(%rip), %xmm5, %xmm7
	vsubss	%xmm0, %xmm8, %xmm0
	vmulss	.LC37(%rip), %xmm0, %xmm0
	vaddsd	%xmm6, %xmm1, %xmm3
	vmulsd	.LC33(%rip), %xmm6, %xmm6
	vsubsd	%xmm7, %xmm4, %xmm4
	vmovss	%xmm0, -2097084(%rbp)
	vmovss	-780(%rax), %xmm0
	vaddsd	%xmm7, %xmm3, %xmm3
	vsubss	-784(%rax), %xmm0, %xmm0
	vcvtsd2ss	%xmm4, %xmm4, %xmm4
	vsubsd	%xmm6, %xmm2, %xmm2
	vcvtsd2ss	%xmm3, %xmm3, %xmm3
	vsubss	%xmm4, %xmm3, %xmm3
	vaddsd	%xmm1, %xmm6, %xmm6
	vsubss	%xmm3, %xmm0, %xmm0
	vmulss	.LC37(%rip), %xmm0, %xmm0
	vmovss	%xmm0, -2097080(%rbp)
	vmovss	-772(%rax), %xmm0
	vsubss	-776(%rax), %xmm0, %xmm7
	vmulsd	.LC36(%rip), %xmm5, %xmm0
	vaddsd	%xmm0, %xmm2, %xmm2
	vmulsd	.LC35(%rip), %xmm5, %xmm0
	vcvtsd2ss	%xmm2, %xmm2, %xmm2
	vaddsd	%xmm0, %xmm6, %xmm1
	vxorps	%xmm0, %xmm0, %xmm0
	vcvtsd2ss	%xmm1, %xmm0, %xmm0
	vsubss	%xmm0, %xmm2, %xmm0
	vsubss	%xmm0, %xmm7, %xmm0
	vmulss	.LC37(%rip), %xmm0, %xmm0
	vmovss	%xmm0, -2097076(%rbp)
	movq	-4194320(%rbp), %rdx
	movq	-2097200(%rbp), %rsi
	movq	%rdx, -992(%rax)
	movq	-4194312(%rbp), %rdx
	movq	%rsi, -896(%rax)
	movq	-2097192(%rbp), %rsi
	movq	%rdx, -984(%rax)
	movq	-4194304(%rbp), %rdx
	movq	%rsi, -888(%rax)
	movq	-2097184(%rbp), %rsi
	movq	%rdx, -976(%rax)
	movq	-4194296(%rbp), %rdx
	movq	%rsi, -880(%rax)
	movq	-2097176(%rbp), %rsi
	movq	%rdx, -968(%rax)
	movq	-4194288(%rbp), %rdx
	movq	%rsi, -872(%rax)
	movq	-2097168(%rbp), %rsi
	movq	%rdx, -960(%rax)
	movq	-4194280(%rbp), %rdx
	movq	%rdx, -952(%rax)
	movq	-4194272(%rbp), %rdx
	movq	%rdx, -944(%rax)
	movq	-4194264(%rbp), %rdx
	movq	%rdx, -936(%rax)
	movq	-4194256(%rbp), %rdx
	movq	%rdx, -928(%rax)
	movq	-4194248(%rbp), %rdx
	movq	%rdx, -920(%rax)
	movq	-4194240(%rbp), %rdx
	movq	%rdx, -912(%rax)
	movq	-4194232(%rbp), %rdx
	movq	%rdx, -904(%rax)
	movq	%rsi, -864(%rax)
	movq	-2097160(%rbp), %rsi
	movq	%rsi, -856(%rax)
	movq	-2097152(%rbp), %rsi
	movq	%rsi, -848(%rax)
	movq	-2097144(%rbp), %rsi
	movq	%rsi, -840(%rax)
	movq	-2097136(%rbp), %rsi
	movq	%rsi, -832(%rax)
	movq	-2097128(%rbp), %rsi
	movq	%rsi, -824(%rax)
	movq	-2097120(%rbp), %rsi
	movq	%rsi, -816(%rax)
	movq	-2097112(%rbp), %rsi
	movq	%rsi, -808(%rax)
	movq	-2097104(%rbp), %rsi
	movq	%rsi, -800(%rax)
	movq	-2097096(%rbp), %rsi
	movq	%rsi, -792(%rax)
	movq	-2097088(%rbp), %rsi
	movq	%rsi, -784(%rax)
	movq	-2097080(%rbp), %rsi
	movq	%rsi, -776(%rax)
	subl	$1, %ecx
	je	.L829
.L669:
	cmpl	$1, %ebx
	ja	.L672
	vxorpd	%xmm0, %xmm0, %xmm0
	vxorpd	%xmm1, %xmm1, %xmm1
	vcvtss2sd	(%rax), %xmm0, %xmm0
	vcvtss2sd	8(%rax), %xmm1, %xmm1
	vmulsd	.LC20(%rip), %xmm0, %xmm0
	vmulsd	.LC21(%rip), %xmm1, %xmm1
	vmovups	40(%rax), %ymm5
	vmovups	104(%rax), %ymm8
	vaddsd	%xmm1, %xmm0, %xmm0
	vxorpd	%xmm1, %xmm1, %xmm1
	vcvtss2sd	16(%rax), %xmm1, %xmm1
	vmulsd	.LC20(%rip), %xmm1, %xmm1
	vsubsd	%xmm1, %xmm0, %xmm0
	vxorpd	%xmm1, %xmm1, %xmm1
	vcvtss2sd	24(%rax), %xmm1, %xmm1
	vmulsd	.LC22(%rip), %xmm1, %xmm1
	vaddsd	%xmm1, %xmm0, %xmm0
	vmovss	4(%rax), %xmm1
	vcvtsd2ss	%xmm0, %xmm0, %xmm0
	vsubss	%xmm0, %xmm1, %xmm0
	vmovss	%xmm0, -4194352(%rbp)
	vmovups	8(%rax), %ymm0
	vshufps	$136, %ymm5, %ymm0, %ymm2
	vshufps	$221, %ymm5, %ymm0, %ymm0
	vperm2f128	$3, %ymm2, %ymm2, %ymm1
	vshufps	$68, %ymm1, %ymm2, %ymm3
	vshufps	$238, %ymm1, %ymm2, %ymm1
	vmovups	24(%rax), %ymm2
	vinsertf128	$1, %xmm1, %ymm3, %ymm3
	vshufps	$136, 56(%rax), %ymm2, %ymm2
	vcvtps2pd	%xmm3, %ymm5
	vperm2f128	$3, %ymm2, %ymm2, %ymm1
	vshufps	$68, %ymm1, %ymm2, %ymm4
	vmulpd	.LC24(%rip), %ymm5, %ymm5
	vshufps	$238, %ymm1, %ymm2, %ymm1
	vinsertf128	$1, %xmm1, %ymm4, %ymm1
	vmovups	16(%rax), %ymm4
	vshufps	$136, 48(%rax), %ymm4, %ymm4
	vperm2f128	$3, %ymm4, %ymm4, %ymm2
	vshufps	$68, %ymm2, %ymm4, %ymm6
	vshufps	$238, %ymm2, %ymm4, %ymm2
	vmovups	(%rax), %ymm4
	vinsertf128	$1, %xmm2, %ymm6, %ymm2
	vshufps	$136, 32(%rax), %ymm4, %ymm4
	vperm2f128	$3, %ymm4, %ymm4, %ymm6
	vshufps	$68, %ymm6, %ymm4, %ymm12
	vshufps	$238, %ymm6, %ymm4, %ymm6
	vperm2f128	$3, %ymm0, %ymm0, %ymm4
	vinsertf128	$1, %xmm6, %ymm12, %ymm12
	vshufps	$68, %ymm4, %ymm0, %ymm6
	vshufps	$238, %ymm4, %ymm0, %ymm4
	vinsertf128	$1, %xmm4, %ymm6, %ymm6
	vcvtps2pd	%xmm12, %ymm4
	vmulpd	.LC23(%rip), %ymm4, %ymm0
	vaddpd	%ymm5, %ymm0, %ymm0
	vcvtps2pd	%xmm2, %ymm5
	vextractf128	$0x1, %ymm3, %xmm3
	vmulpd	.LC24(%rip), %ymm5, %ymm5
	vcvtps2pd	%xmm3, %ymm3
	vextractf128	$0x1, %ymm2, %xmm2
	vcvtps2pd	%xmm2, %ymm2
	vmulpd	.LC24(%rip), %ymm3, %ymm3
	vmulpd	.LC24(%rip), %ymm2, %ymm2
	vaddpd	%ymm5, %ymm0, %ymm0
	vcvtps2pd	%xmm1, %ymm5
	vextractf128	$0x1, %ymm1, %xmm1
	vmulpd	.LC25(%rip), %ymm5, %ymm5
	vcvtps2pd	%xmm1, %ymm1
	vmulpd	.LC25(%rip), %ymm1, %ymm1
	vsubpd	%ymm5, %ymm0, %ymm0
	vextractf128	$0x1, %ymm12, %xmm5
	vcvtps2pd	%xmm5, %ymm5
	vmulpd	.LC23(%rip), %ymm5, %ymm7
	vaddpd	%ymm3, %ymm7, %ymm3
	vcvtpd2psy	%ymm0, %xmm0
	vaddpd	%ymm2, %ymm3, %ymm2
	vsubpd	%ymm1, %ymm2, %ymm1
	vmovups	72(%rax), %ymm2
	vshufps	$136, %ymm8, %ymm2, %ymm3
	vshufps	$221, %ymm8, %ymm2, %ymm2
	vcvtpd2psy	%ymm1, %xmm1
	vinsertf128	$0x1, %xmm1, %ymm0, %ymm1
	vsubps	%ymm1, %ymm6, %ymm1
	vperm2f128	$3, %ymm3, %ymm3, %ymm0
	vmovups	%ymm1, -4194348(%rbp)
	vshufps	$68, %ymm0, %ymm3, %ymm1
	vshufps	$238, %ymm0, %ymm3, %ymm0
	vinsertf128	$1, %xmm0, %ymm1, %ymm1
	vmovups	88(%rax), %ymm0
	vshufps	$136, 120(%rax), %ymm0, %ymm0
	vperm2f128	$3, %ymm0, %ymm0, %ymm3
	vshufps	$68, %ymm3, %ymm0, %ymm6
	vshufps	$238, %ymm3, %ymm0, %ymm3
	vinsertf128	$1, %xmm3, %ymm6, %ymm6
	vmovups	80(%rax), %ymm3
	vshufps	$136, 112(%rax), %ymm3, %ymm3
	vperm2f128	$3, %ymm3, %ymm3, %ymm0
	vshufps	$68, %ymm0, %ymm3, %ymm7
	vshufps	$238, %ymm0, %ymm3, %ymm0
	vmovups	64(%rax), %ymm3
	vinsertf128	$1, %xmm0, %ymm7, %ymm0
	vshufps	$136, 96(%rax), %ymm3, %ymm3
	vperm2f128	$3, %ymm3, %ymm3, %ymm7
	vshufps	$68, %ymm7, %ymm3, %ymm9
	vshufps	$238, %ymm7, %ymm3, %ymm7
	vperm2f128	$3, %ymm2, %ymm2, %ymm3
	vinsertf128	$1, %xmm7, %ymm9, %ymm9
	vshufps	$68, %ymm3, %ymm2, %ymm7
	vshufps	$238, %ymm3, %ymm2, %ymm3
	vcvtps2pd	%xmm1, %ymm2
	vinsertf128	$1, %xmm3, %ymm7, %ymm7
	vmulpd	.LC24(%rip), %ymm2, %ymm2
	vcvtps2pd	%xmm9, %ymm3
	vextractf128	$0x1, %ymm1, %xmm1
	vmulpd	.LC23(%rip), %ymm3, %ymm8
	vaddpd	%ymm2, %ymm8, %ymm8
	vcvtps2pd	%xmm0, %ymm2
	vcvtps2pd	%xmm1, %ymm1
	vmulpd	.LC24(%rip), %ymm2, %ymm2
	vmulpd	.LC24(%rip), %ymm1, %ymm1
	vextractf128	$0x1, %ymm0, %xmm0
	vcvtps2pd	%xmm0, %ymm0
	vmulpd	.LC24(%rip), %ymm0, %ymm0
	vmovups	168(%rax), %ymm13
	vaddpd	%ymm2, %ymm8, %ymm2
	vcvtps2pd	%xmm6, %ymm8
	vmovapd	%ymm3, -4194512(%rbp)
	vmulpd	.LC25(%rip), %ymm8, %ymm8
	vsubpd	%ymm8, %ymm2, %ymm2
	vextractf128	$0x1, %ymm9, %xmm8
	vcvtps2pd	%xmm8, %ymm14
	vmulpd	.LC23(%rip), %ymm14, %ymm8
	vaddpd	%ymm1, %ymm8, %ymm1
	vmovapd	%ymm14, -4194544(%rbp)
	vcvtpd2psy	%ymm2, %xmm2
	vaddpd	%ymm0, %ymm1, %ymm1
	vextractf128	$0x1, %ymm6, %xmm0
	vcvtps2pd	%xmm0, %ymm0
	vmulpd	.LC25(%rip), %ymm0, %ymm0
	vsubpd	%ymm0, %ymm1, %ymm0
	vcvtpd2psy	%ymm0, %xmm0
	vinsertf128	$0x1, %xmm0, %ymm2, %ymm0
	vsubps	%ymm0, %ymm7, %ymm0
	vmovups	136(%rax), %ymm7
	vshufps	$136, %ymm13, %ymm7, %ymm1
	vshufps	$221, %ymm13, %ymm7, %ymm7
	vmovups	%ymm0, -4194316(%rbp)
	vperm2f128	$3, %ymm1, %ymm1, %ymm0
	vshufps	$68, %ymm0, %ymm1, %ymm2
	vshufps	$238, %ymm0, %ymm1, %ymm0
	vmovups	152(%rax), %ymm1
	vinsertf128	$1, %xmm0, %ymm2, %ymm2
	vshufps	$136, 184(%rax), %ymm1, %ymm1
	vperm2f128	$3, %ymm1, %ymm1, %ymm0
	vshufps	$68, %ymm0, %ymm1, %ymm6
	vshufps	$238, %ymm0, %ymm1, %ymm0
	vinsertf128	$1, %xmm0, %ymm6, %ymm0
	vmovups	144(%rax), %ymm6
	vshufps	$136, 176(%rax), %ymm6, %ymm6
	vperm2f128	$3, %ymm6, %ymm6, %ymm1
	vshufps	$68, %ymm1, %ymm6, %ymm8
	vshufps	$238, %ymm1, %ymm6, %ymm1
	vinsertf128	$1, %xmm1, %ymm8, %ymm1
	vmovups	128(%rax), %ymm8
	vshufps	$136, 160(%rax), %ymm8, %ymm8
	vperm2f128	$3, %ymm8, %ymm8, %ymm6
	vshufps	$68, %ymm6, %ymm8, %ymm14
	vshufps	$238, %ymm6, %ymm8, %ymm6
	vperm2f128	$3, %ymm7, %ymm7, %ymm8
	vinsertf128	$1, %xmm6, %ymm14, %ymm6
	vshufps	$68, %ymm8, %ymm7, %ymm13
	vcvtps2pd	%xmm6, %ymm14
	vshufps	$238, %ymm8, %ymm7, %ymm8
	vcvtps2pd	%xmm2, %ymm7
	vinsertf128	$1, %xmm8, %ymm13, %ymm8
	vextractf128	$0x1, %ymm2, %xmm2
	vcvtps2pd	%xmm2, %ymm2
	vmulpd	.LC24(%rip), %ymm7, %ymm7
	vmulpd	.LC23(%rip), %ymm14, %ymm13
	vaddpd	%ymm7, %ymm13, %ymm13
	vcvtps2pd	%xmm1, %ymm7
	vmulpd	.LC24(%rip), %ymm7, %ymm7
	vmulpd	.LC24(%rip), %ymm2, %ymm2
	vextractf128	$0x1, %ymm1, %xmm1
	vcvtps2pd	%xmm1, %ymm1
	vmulpd	.LC24(%rip), %ymm1, %ymm1
	vaddpd	%ymm7, %ymm13, %ymm7
	vcvtps2pd	%xmm0, %ymm13
	vextractf128	$0x1, %ymm0, %xmm0
	vmulpd	.LC25(%rip), %ymm13, %ymm13
	vcvtps2pd	%xmm0, %ymm0
	vmulpd	.LC25(%rip), %ymm0, %ymm0
	vsubpd	%ymm13, %ymm7, %ymm7
	vextractf128	$0x1, %ymm6, %xmm13
	vcvtps2pd	%xmm13, %ymm13
	vmulpd	.LC23(%rip), %ymm13, %ymm3
	vaddpd	%ymm3, %ymm2, %ymm2
	vcvtpd2psy	%ymm7, %xmm7
	vaddpd	%ymm1, %ymm2, %ymm2
	vmovsd	.LC26(%rip), %xmm1
	vsubpd	%ymm0, %ymm2, %ymm2
	vxorpd	%xmm0, %xmm0, %xmm0
	vcvtpd2psy	%ymm2, %xmm2
	vinsertf128	$0x1, %xmm2, %ymm7, %ymm2
	vsubps	%ymm2, %ymm8, %ymm2
	vxorpd	%xmm7, %xmm7, %xmm7
	vcvtss2sd	200(%rax), %xmm7, %xmm7
	vmovapd	%xmm7, %xmm3
	vxorpd	%xmm7, %xmm7, %xmm7
	vmovups	%ymm2, -4194284(%rbp)
	vxorpd	%xmm2, %xmm2, %xmm2
	vcvtss2sd	208(%rax), %xmm2, %xmm2
	vmovsd	%xmm2, -4194480(%rbp)
	vcvtss2sd	216(%rax), %xmm7, %xmm7
	vcvtss2sd	192(%rax), %xmm0, %xmm0
	vmovapd	%xmm7, %xmm8
	vmulsd	%xmm3, %xmm1, %xmm7
	vmovsd	%xmm3, -4194416(%rbp)
	vmovsd	.LC22(%rip), %xmm3
	vmulsd	%xmm2, %xmm1, %xmm2
	vmovsd	%xmm8, -4194448(%rbp)
	vmulsd	.LC27(%rip), %xmm0, %xmm0
	vaddsd	%xmm7, %xmm0, %xmm0
	vmulsd	%xmm8, %xmm3, %xmm7
	vmovsd	.LC27(%rip), %xmm3
	vaddsd	%xmm2, %xmm0, %xmm0
	vsubsd	%xmm7, %xmm0, %xmm0
	vmovss	204(%rax), %xmm7
	vcvtsd2ss	%xmm0, %xmm0, %xmm0
	vsubss	%xmm0, %xmm7, %xmm0
	vmulsd	%xmm8, %xmm1, %xmm7
	vxorpd	%xmm8, %xmm8, %xmm8
	vcvtss2sd	224(%rax), %xmm8, %xmm8
	vmovss	%xmm0, -4194252(%rbp)
	vmulsd	-4194416(%rbp), %xmm3, %xmm0
	vaddsd	%xmm2, %xmm0, %xmm0
	vmulsd	.LC22(%rip), %xmm8, %xmm2
	vaddsd	%xmm7, %xmm0, %xmm0
	vmovsd	%xmm2, -4194576(%rbp)
	vsubsd	%xmm2, %xmm0, %xmm0
	vmovss	212(%rax), %xmm2
	vcvtsd2ss	%xmm0, %xmm0, %xmm0
	vsubss	%xmm0, %xmm2, %xmm0
	vmulsd	%xmm1, %xmm8, %xmm2
	vmovss	%xmm0, -4194248(%rbp)
	vxorpd	%xmm0, %xmm0, %xmm0
	vcvtss2sd	232(%rax), %xmm0, %xmm0
	vmovsd	%xmm0, -4194416(%rbp)
	vmulsd	-4194480(%rbp), %xmm3, %xmm0
	vmovsd	.LC22(%rip), %xmm3
	vaddsd	%xmm0, %xmm7, %xmm0
	vmulsd	-4194416(%rbp), %xmm3, %xmm7
	vmovsd	.LC27(%rip), %xmm3
	vaddsd	%xmm2, %xmm0, %xmm0
	vsubsd	%xmm7, %xmm0, %xmm0
	vmovss	220(%rax), %xmm7
	vcvtsd2ss	%xmm0, %xmm0, %xmm0
	vsubss	%xmm0, %xmm7, %xmm0
	vmulsd	-4194416(%rbp), %xmm1, %xmm7
	vmovss	%xmm0, -4194244(%rbp)
	vmulsd	-4194448(%rbp), %xmm3, %xmm0
	vaddsd	%xmm0, %xmm2, %xmm0
	vxorpd	%xmm2, %xmm2, %xmm2
	vcvtss2sd	240(%rax), %xmm2, %xmm2
	vmulsd	%xmm1, %xmm2, %xmm1
	vmulsd	.LC22(%rip), %xmm2, %xmm3
	vaddsd	%xmm7, %xmm0, %xmm0
	vsubsd	%xmm3, %xmm0, %xmm0
	vmovss	228(%rax), %xmm3
	vcvtsd2ss	%xmm0, %xmm0, %xmm0
	vsubss	%xmm0, %xmm3, %xmm0
	vmovss	%xmm0, -4194240(%rbp)
	vmulsd	.LC27(%rip), %xmm8, %xmm0
	vaddsd	%xmm7, %xmm0, %xmm0
	vxorpd	%xmm7, %xmm7, %xmm7
	vcvtss2sd	248(%rax), %xmm7, %xmm7
	vaddsd	%xmm1, %xmm0, %xmm0
	vmulsd	.LC22(%rip), %xmm7, %xmm1
	vsubsd	%xmm1, %xmm0, %xmm0
	vmovss	236(%rax), %xmm1
	vcvtsd2ss	%xmm0, %xmm0, %xmm0
	vsubss	%xmm0, %xmm1, %xmm0
	vmovss	%xmm0, -4194236(%rbp)
	vmovsd	-4194576(%rbp), %xmm1
	vmovsd	.LC20(%rip), %xmm3
	vmovaps	%ymm12, -2097200(%rbp)
	vmulsd	-4194416(%rbp), %xmm3, %xmm0
	vmovaps	%ymm9, -2097168(%rbp)
	vmulsd	.LC28(%rip), %xmm8, %xmm8
	vmovaps	%ymm6, -2097136(%rbp)
	vsubsd	%xmm0, %xmm1, %xmm1
	vmulsd	.LC21(%rip), %xmm2, %xmm0
	vaddsd	%xmm0, %xmm1, %xmm0
	vmulsd	%xmm3, %xmm7, %xmm1
	vaddsd	%xmm1, %xmm0, %xmm0
	vmovss	244(%rax), %xmm1
	vcvtsd2ss	%xmm0, %xmm0, %xmm0
	vsubss	%xmm0, %xmm1, %xmm0
	vmovsd	.LC30(%rip), %xmm1
	vmovss	%xmm0, -4194232(%rbp)
	vmovsd	-4194416(%rbp), %xmm0
	vmulsd	.LC29(%rip), %xmm0, %xmm0
	vaddsd	%xmm0, %xmm8, %xmm8
	vmulsd	%xmm1, %xmm2, %xmm0
	vmulsd	%xmm1, %xmm7, %xmm1
	vsubsd	%xmm0, %xmm8, %xmm0
	vaddsd	%xmm1, %xmm0, %xmm0
	vmovss	252(%rax), %xmm1
	vcvtsd2ss	%xmm0, %xmm0, %xmm0
	vsubss	%xmm0, %xmm1, %xmm0
	vmovss	%xmm0, -4194228(%rbp)
	vmovss	192(%rax), %xmm0
	vmovss	%xmm0, -2097104(%rbp)
	vmovss	200(%rax), %xmm0
	vmovss	%xmm0, -2097100(%rbp)
	vmovss	208(%rax), %xmm0
	vmovss	%xmm0, -2097096(%rbp)
	vmovss	216(%rax), %xmm0
	vmovss	%xmm0, -2097092(%rbp)
	vmovss	224(%rax), %xmm0
	vmovss	%xmm0, -2097088(%rbp)
	vmovss	232(%rax), %xmm0
	vmovss	%xmm0, -2097084(%rbp)
	vmovss	240(%rax), %xmm0
	vmovss	%xmm0, -2097080(%rbp)
	vmovss	248(%rax), %xmm0
	vmovss	%xmm0, -2097076(%rbp)
	testb	%r14b, %r14b
	je	.L675
	vmovaps	-4194352(%rbp), %ymm1
	vcvtps2pd	%xmm1, %ymm0
	vextractf128	$0x1, %ymm1, %xmm1
	vcvtps2pd	%xmm1, %ymm1
	vmulpd	.LC31(%rip), %ymm0, %ymm0
	vmulpd	.LC31(%rip), %ymm1, %ymm1
	vaddpd	%ymm0, %ymm4, %ymm0
	vaddpd	%ymm1, %ymm5, %ymm1
	vcvtpd2psy	%ymm0, %xmm0
	vcvtpd2psy	%ymm1, %xmm1
	vinsertf128	$0x1, %xmm1, %ymm0, %ymm0
	vmovaps	-4194320(%rbp), %ymm1
	vmovaps	%ymm0, -2097200(%rbp)
	vcvtps2pd	%xmm1, %ymm0
	vextractf128	$0x1, %ymm1, %xmm1
	vcvtps2pd	%xmm1, %ymm1
	vmulpd	.LC31(%rip), %ymm0, %ymm0
	vmulpd	.LC31(%rip), %ymm1, %ymm1
	vaddpd	-4194512(%rbp), %ymm0, %ymm0
	vaddpd	-4194544(%rbp), %ymm1, %ymm1
	vcvtpd2psy	%ymm0, %xmm0
	vcvtpd2psy	%ymm1, %xmm1
	vinsertf128	$0x1, %xmm1, %ymm0, %ymm0
	vmovaps	-4194288(%rbp), %ymm1
	vmovaps	%ymm0, -2097168(%rbp)
	vcvtps2pd	%xmm1, %ymm0
	vextractf128	$0x1, %ymm1, %xmm1
	vcvtps2pd	%xmm1, %ymm1
	vmulpd	.LC31(%rip), %ymm0, %ymm0
	vmulpd	.LC31(%rip), %ymm1, %ymm1
	vaddpd	%ymm0, %ymm14, %ymm0
	vaddpd	%ymm1, %ymm13, %ymm1
	vcvtpd2psy	%ymm0, %xmm0
	vcvtpd2psy	%ymm1, %xmm1
	vinsertf128	$0x1, %xmm1, %ymm0, %ymm0
	vmovaps	-4194256(%rbp), %ymm1
	vmovaps	%ymm0, -2097136(%rbp)
	vmovaps	-2097104(%rbp), %ymm0
	vcvtps2pd	%xmm1, %ymm3
	vextractf128	$0x1, %ymm1, %xmm1
	vcvtps2pd	%xmm1, %ymm1
	vmulpd	.LC31(%rip), %ymm3, %ymm3
	vmulpd	.LC31(%rip), %ymm1, %ymm1
	vcvtps2pd	%xmm0, %ymm2
	vextractf128	$0x1, %ymm0, %xmm0
	vaddpd	%ymm3, %ymm2, %ymm2
	vcvtps2pd	%xmm0, %ymm0
	vaddpd	%ymm1, %ymm0, %ymm0
	vcvtpd2psy	%ymm2, %xmm1
	vcvtpd2psy	%ymm0, %xmm0
	vinsertf128	$0x1, %xmm0, %ymm1, %ymm0
	vmovaps	%ymm0, -2097104(%rbp)
.L675:
	movq	-2097200(%rbp), %rdx
	addq	$1024, %rax
	movq	-4194352(%rbp), %rsi
	movq	%rdx, -1024(%rax)
	movq	-2097192(%rbp), %rdx
	movq	%rdx, -1016(%rax)
	movq	-2097184(%rbp), %rdx
	movq	%rdx, -1008(%rax)
	movq	-2097176(%rbp), %rdx
	movq	%rdx, -1000(%rax)
	movq	-2097168(%rbp), %rdx
	movq	%rdx, -992(%rax)
	movq	-2097160(%rbp), %rdx
	movq	%rdx, -984(%rax)
	movq	-2097152(%rbp), %rdx
	movq	%rdx, -976(%rax)
	movq	-2097144(%rbp), %rdx
	movq	%rdx, -968(%rax)
	movq	-2097136(%rbp), %rdx
	movq	%rdx, -960(%rax)
	movq	-2097128(%rbp), %rdx
	movq	%rdx, -952(%rax)
	movq	-2097120(%rbp), %rdx
